ARM GAS  /tmp/ccYYUFl4.s 			page 1


   1              		.syntax unified
   2              		.cpu cortex-m4
   3              		.eabi_attribute 27, 1
   4              		.eabi_attribute 28, 1
   5              		.fpu fpv4-sp-d16
   6              		.eabi_attribute 20, 1
   7              		.eabi_attribute 21, 1
   8              		.eabi_attribute 23, 3
   9              		.eabi_attribute 24, 1
  10              		.eabi_attribute 25, 1
  11              		.eabi_attribute 26, 1
  12              		.eabi_attribute 30, 1
  13              		.eabi_attribute 34, 1
  14              		.eabi_attribute 18, 4
  15              		.thumb
  16              		.file	"stm32f4xx_hal_dma_ex.c"
  17              		.text
  18              	.Ltext0:
  19              		.cfi_sections	.debug_frame
  20              		.section	.text.DMA_MultiBufferSetConfig,"ax",%progbits
  21              		.align	2
  22              		.thumb
  23              		.thumb_func
  25              	DMA_MultiBufferSetConfig:
  26              	.LFB126:
  27              		.file 1 "Drivers/STM32F4xx_HAL_Driver/Src/stm32f4xx_hal_dma_ex.c"
   1:Drivers/STM32F4xx_HAL_Driver/Src/stm32f4xx_hal_dma_ex.c **** /**
   2:Drivers/STM32F4xx_HAL_Driver/Src/stm32f4xx_hal_dma_ex.c ****   ******************************************************************************
   3:Drivers/STM32F4xx_HAL_Driver/Src/stm32f4xx_hal_dma_ex.c ****   * @file    stm32f4xx_hal_dma_ex.c
   4:Drivers/STM32F4xx_HAL_Driver/Src/stm32f4xx_hal_dma_ex.c ****   * @author  MCD Application Team
   5:Drivers/STM32F4xx_HAL_Driver/Src/stm32f4xx_hal_dma_ex.c ****   * @brief   DMA Extension HAL module driver
   6:Drivers/STM32F4xx_HAL_Driver/Src/stm32f4xx_hal_dma_ex.c ****   *         This file provides firmware functions to manage the following 
   7:Drivers/STM32F4xx_HAL_Driver/Src/stm32f4xx_hal_dma_ex.c ****   *         functionalities of the DMA Extension peripheral:
   8:Drivers/STM32F4xx_HAL_Driver/Src/stm32f4xx_hal_dma_ex.c ****   *           + Extended features functions
   9:Drivers/STM32F4xx_HAL_Driver/Src/stm32f4xx_hal_dma_ex.c ****   *
  10:Drivers/STM32F4xx_HAL_Driver/Src/stm32f4xx_hal_dma_ex.c ****   @verbatim
  11:Drivers/STM32F4xx_HAL_Driver/Src/stm32f4xx_hal_dma_ex.c ****   ==============================================================================
  12:Drivers/STM32F4xx_HAL_Driver/Src/stm32f4xx_hal_dma_ex.c ****                         ##### How to use this driver #####
  13:Drivers/STM32F4xx_HAL_Driver/Src/stm32f4xx_hal_dma_ex.c ****   ==============================================================================
  14:Drivers/STM32F4xx_HAL_Driver/Src/stm32f4xx_hal_dma_ex.c ****   [..]
  15:Drivers/STM32F4xx_HAL_Driver/Src/stm32f4xx_hal_dma_ex.c ****   The DMA Extension HAL driver can be used as follows:
  16:Drivers/STM32F4xx_HAL_Driver/Src/stm32f4xx_hal_dma_ex.c ****    (#) Start a multi buffer transfer using the HAL_DMA_MultiBufferStart() function
  17:Drivers/STM32F4xx_HAL_Driver/Src/stm32f4xx_hal_dma_ex.c ****        for polling mode or HAL_DMA_MultiBufferStart_IT() for interrupt mode.
  18:Drivers/STM32F4xx_HAL_Driver/Src/stm32f4xx_hal_dma_ex.c ****                    
  19:Drivers/STM32F4xx_HAL_Driver/Src/stm32f4xx_hal_dma_ex.c ****      -@-  In Memory-to-Memory transfer mode, Multi (Double) Buffer mode is not allowed.
  20:Drivers/STM32F4xx_HAL_Driver/Src/stm32f4xx_hal_dma_ex.c ****      -@-  When Multi (Double) Buffer mode is enabled the, transfer is circular by default.
  21:Drivers/STM32F4xx_HAL_Driver/Src/stm32f4xx_hal_dma_ex.c ****      -@-  In Multi (Double) buffer mode, it is possible to update the base address for 
  22:Drivers/STM32F4xx_HAL_Driver/Src/stm32f4xx_hal_dma_ex.c ****           the AHB memory port on the fly (DMA_SxM0AR or DMA_SxM1AR) when the stream is enabled. 
  23:Drivers/STM32F4xx_HAL_Driver/Src/stm32f4xx_hal_dma_ex.c ****   
  24:Drivers/STM32F4xx_HAL_Driver/Src/stm32f4xx_hal_dma_ex.c ****   @endverbatim
  25:Drivers/STM32F4xx_HAL_Driver/Src/stm32f4xx_hal_dma_ex.c ****   ******************************************************************************
  26:Drivers/STM32F4xx_HAL_Driver/Src/stm32f4xx_hal_dma_ex.c ****   * @attention
  27:Drivers/STM32F4xx_HAL_Driver/Src/stm32f4xx_hal_dma_ex.c ****   *
  28:Drivers/STM32F4xx_HAL_Driver/Src/stm32f4xx_hal_dma_ex.c ****   * <h2><center>&copy; COPYRIGHT(c) 2017 STMicroelectronics</center></h2>
  29:Drivers/STM32F4xx_HAL_Driver/Src/stm32f4xx_hal_dma_ex.c ****   *
  30:Drivers/STM32F4xx_HAL_Driver/Src/stm32f4xx_hal_dma_ex.c ****   * Redistribution and use in source and binary forms, with or without modification,
  31:Drivers/STM32F4xx_HAL_Driver/Src/stm32f4xx_hal_dma_ex.c ****   * are permitted provided that the following conditions are met:
ARM GAS  /tmp/ccYYUFl4.s 			page 2


  32:Drivers/STM32F4xx_HAL_Driver/Src/stm32f4xx_hal_dma_ex.c ****   *   1. Redistributions of source code must retain the above copyright notice,
  33:Drivers/STM32F4xx_HAL_Driver/Src/stm32f4xx_hal_dma_ex.c ****   *      this list of conditions and the following disclaimer.
  34:Drivers/STM32F4xx_HAL_Driver/Src/stm32f4xx_hal_dma_ex.c ****   *   2. Redistributions in binary form must reproduce the above copyright notice,
  35:Drivers/STM32F4xx_HAL_Driver/Src/stm32f4xx_hal_dma_ex.c ****   *      this list of conditions and the following disclaimer in the documentation
  36:Drivers/STM32F4xx_HAL_Driver/Src/stm32f4xx_hal_dma_ex.c ****   *      and/or other materials provided with the distribution.
  37:Drivers/STM32F4xx_HAL_Driver/Src/stm32f4xx_hal_dma_ex.c ****   *   3. Neither the name of STMicroelectronics nor the names of its contributors
  38:Drivers/STM32F4xx_HAL_Driver/Src/stm32f4xx_hal_dma_ex.c ****   *      may be used to endorse or promote products derived from this software
  39:Drivers/STM32F4xx_HAL_Driver/Src/stm32f4xx_hal_dma_ex.c ****   *      without specific prior written permission.
  40:Drivers/STM32F4xx_HAL_Driver/Src/stm32f4xx_hal_dma_ex.c ****   *
  41:Drivers/STM32F4xx_HAL_Driver/Src/stm32f4xx_hal_dma_ex.c ****   * THIS SOFTWARE IS PROVIDED BY THE COPYRIGHT HOLDERS AND CONTRIBUTORS "AS IS"
  42:Drivers/STM32F4xx_HAL_Driver/Src/stm32f4xx_hal_dma_ex.c ****   * AND ANY EXPRESS OR IMPLIED WARRANTIES, INCLUDING, BUT NOT LIMITED TO, THE
  43:Drivers/STM32F4xx_HAL_Driver/Src/stm32f4xx_hal_dma_ex.c ****   * IMPLIED WARRANTIES OF MERCHANTABILITY AND FITNESS FOR A PARTICULAR PURPOSE ARE
  44:Drivers/STM32F4xx_HAL_Driver/Src/stm32f4xx_hal_dma_ex.c ****   * DISCLAIMED. IN NO EVENT SHALL THE COPYRIGHT HOLDER OR CONTRIBUTORS BE LIABLE
  45:Drivers/STM32F4xx_HAL_Driver/Src/stm32f4xx_hal_dma_ex.c ****   * FOR ANY DIRECT, INDIRECT, INCIDENTAL, SPECIAL, EXEMPLARY, OR CONSEQUENTIAL
  46:Drivers/STM32F4xx_HAL_Driver/Src/stm32f4xx_hal_dma_ex.c ****   * DAMAGES (INCLUDING, BUT NOT LIMITED TO, PROCUREMENT OF SUBSTITUTE GOODS OR
  47:Drivers/STM32F4xx_HAL_Driver/Src/stm32f4xx_hal_dma_ex.c ****   * SERVICES; LOSS OF USE, DATA, OR PROFITS; OR BUSINESS INTERRUPTION) HOWEVER
  48:Drivers/STM32F4xx_HAL_Driver/Src/stm32f4xx_hal_dma_ex.c ****   * CAUSED AND ON ANY THEORY OF LIABILITY, WHETHER IN CONTRACT, STRICT LIABILITY,
  49:Drivers/STM32F4xx_HAL_Driver/Src/stm32f4xx_hal_dma_ex.c ****   * OR TORT (INCLUDING NEGLIGENCE OR OTHERWISE) ARISING IN ANY WAY OUT OF THE USE
  50:Drivers/STM32F4xx_HAL_Driver/Src/stm32f4xx_hal_dma_ex.c ****   * OF THIS SOFTWARE, EVEN IF ADVISED OF THE POSSIBILITY OF SUCH DAMAGE.
  51:Drivers/STM32F4xx_HAL_Driver/Src/stm32f4xx_hal_dma_ex.c ****   *
  52:Drivers/STM32F4xx_HAL_Driver/Src/stm32f4xx_hal_dma_ex.c ****   ******************************************************************************
  53:Drivers/STM32F4xx_HAL_Driver/Src/stm32f4xx_hal_dma_ex.c ****   */
  54:Drivers/STM32F4xx_HAL_Driver/Src/stm32f4xx_hal_dma_ex.c **** 
  55:Drivers/STM32F4xx_HAL_Driver/Src/stm32f4xx_hal_dma_ex.c **** /* Includes ------------------------------------------------------------------*/
  56:Drivers/STM32F4xx_HAL_Driver/Src/stm32f4xx_hal_dma_ex.c **** #include "stm32f4xx_hal.h"
  57:Drivers/STM32F4xx_HAL_Driver/Src/stm32f4xx_hal_dma_ex.c **** 
  58:Drivers/STM32F4xx_HAL_Driver/Src/stm32f4xx_hal_dma_ex.c **** /** @addtogroup STM32F4xx_HAL_Driver
  59:Drivers/STM32F4xx_HAL_Driver/Src/stm32f4xx_hal_dma_ex.c ****   * @{
  60:Drivers/STM32F4xx_HAL_Driver/Src/stm32f4xx_hal_dma_ex.c ****   */
  61:Drivers/STM32F4xx_HAL_Driver/Src/stm32f4xx_hal_dma_ex.c **** 
  62:Drivers/STM32F4xx_HAL_Driver/Src/stm32f4xx_hal_dma_ex.c **** /** @defgroup DMAEx DMAEx
  63:Drivers/STM32F4xx_HAL_Driver/Src/stm32f4xx_hal_dma_ex.c ****   * @brief DMA Extended HAL module driver
  64:Drivers/STM32F4xx_HAL_Driver/Src/stm32f4xx_hal_dma_ex.c ****   * @{
  65:Drivers/STM32F4xx_HAL_Driver/Src/stm32f4xx_hal_dma_ex.c ****   */
  66:Drivers/STM32F4xx_HAL_Driver/Src/stm32f4xx_hal_dma_ex.c **** 
  67:Drivers/STM32F4xx_HAL_Driver/Src/stm32f4xx_hal_dma_ex.c **** #ifdef HAL_DMA_MODULE_ENABLED
  68:Drivers/STM32F4xx_HAL_Driver/Src/stm32f4xx_hal_dma_ex.c **** 
  69:Drivers/STM32F4xx_HAL_Driver/Src/stm32f4xx_hal_dma_ex.c **** /* Private types -------------------------------------------------------------*/
  70:Drivers/STM32F4xx_HAL_Driver/Src/stm32f4xx_hal_dma_ex.c **** /* Private variables ---------------------------------------------------------*/
  71:Drivers/STM32F4xx_HAL_Driver/Src/stm32f4xx_hal_dma_ex.c **** /* Private Constants ---------------------------------------------------------*/
  72:Drivers/STM32F4xx_HAL_Driver/Src/stm32f4xx_hal_dma_ex.c **** /* Private macros ------------------------------------------------------------*/
  73:Drivers/STM32F4xx_HAL_Driver/Src/stm32f4xx_hal_dma_ex.c **** /* Private functions ---------------------------------------------------------*/
  74:Drivers/STM32F4xx_HAL_Driver/Src/stm32f4xx_hal_dma_ex.c **** /** @addtogroup DMAEx_Private_Functions
  75:Drivers/STM32F4xx_HAL_Driver/Src/stm32f4xx_hal_dma_ex.c ****   * @{
  76:Drivers/STM32F4xx_HAL_Driver/Src/stm32f4xx_hal_dma_ex.c ****   */
  77:Drivers/STM32F4xx_HAL_Driver/Src/stm32f4xx_hal_dma_ex.c **** static void DMA_MultiBufferSetConfig(DMA_HandleTypeDef *hdma, uint32_t SrcAddress, uint32_t DstAddr
  78:Drivers/STM32F4xx_HAL_Driver/Src/stm32f4xx_hal_dma_ex.c **** /**
  79:Drivers/STM32F4xx_HAL_Driver/Src/stm32f4xx_hal_dma_ex.c ****   * @}
  80:Drivers/STM32F4xx_HAL_Driver/Src/stm32f4xx_hal_dma_ex.c ****   */
  81:Drivers/STM32F4xx_HAL_Driver/Src/stm32f4xx_hal_dma_ex.c **** 
  82:Drivers/STM32F4xx_HAL_Driver/Src/stm32f4xx_hal_dma_ex.c **** /* Exported functions ---------------------------------------------------------*/
  83:Drivers/STM32F4xx_HAL_Driver/Src/stm32f4xx_hal_dma_ex.c **** 
  84:Drivers/STM32F4xx_HAL_Driver/Src/stm32f4xx_hal_dma_ex.c **** /** @addtogroup DMAEx_Exported_Functions
  85:Drivers/STM32F4xx_HAL_Driver/Src/stm32f4xx_hal_dma_ex.c ****   * @{
  86:Drivers/STM32F4xx_HAL_Driver/Src/stm32f4xx_hal_dma_ex.c ****   */
  87:Drivers/STM32F4xx_HAL_Driver/Src/stm32f4xx_hal_dma_ex.c **** 
  88:Drivers/STM32F4xx_HAL_Driver/Src/stm32f4xx_hal_dma_ex.c **** 
ARM GAS  /tmp/ccYYUFl4.s 			page 3


  89:Drivers/STM32F4xx_HAL_Driver/Src/stm32f4xx_hal_dma_ex.c **** /** @addtogroup DMAEx_Exported_Functions_Group1
  90:Drivers/STM32F4xx_HAL_Driver/Src/stm32f4xx_hal_dma_ex.c ****   *
  91:Drivers/STM32F4xx_HAL_Driver/Src/stm32f4xx_hal_dma_ex.c **** @verbatim   
  92:Drivers/STM32F4xx_HAL_Driver/Src/stm32f4xx_hal_dma_ex.c ****  ===============================================================================
  93:Drivers/STM32F4xx_HAL_Driver/Src/stm32f4xx_hal_dma_ex.c ****                 #####  Extended features functions  #####
  94:Drivers/STM32F4xx_HAL_Driver/Src/stm32f4xx_hal_dma_ex.c ****  ===============================================================================  
  95:Drivers/STM32F4xx_HAL_Driver/Src/stm32f4xx_hal_dma_ex.c ****     [..]  This section provides functions allowing to:
  96:Drivers/STM32F4xx_HAL_Driver/Src/stm32f4xx_hal_dma_ex.c ****       (+) Configure the source, destination address and data length and 
  97:Drivers/STM32F4xx_HAL_Driver/Src/stm32f4xx_hal_dma_ex.c ****           Start MultiBuffer DMA transfer
  98:Drivers/STM32F4xx_HAL_Driver/Src/stm32f4xx_hal_dma_ex.c ****       (+) Configure the source, destination address and data length and 
  99:Drivers/STM32F4xx_HAL_Driver/Src/stm32f4xx_hal_dma_ex.c ****           Start MultiBuffer DMA transfer with interrupt
 100:Drivers/STM32F4xx_HAL_Driver/Src/stm32f4xx_hal_dma_ex.c ****       (+) Change on the fly the memory0 or memory1 address.
 101:Drivers/STM32F4xx_HAL_Driver/Src/stm32f4xx_hal_dma_ex.c ****       
 102:Drivers/STM32F4xx_HAL_Driver/Src/stm32f4xx_hal_dma_ex.c **** @endverbatim
 103:Drivers/STM32F4xx_HAL_Driver/Src/stm32f4xx_hal_dma_ex.c ****   * @{
 104:Drivers/STM32F4xx_HAL_Driver/Src/stm32f4xx_hal_dma_ex.c ****   */
 105:Drivers/STM32F4xx_HAL_Driver/Src/stm32f4xx_hal_dma_ex.c **** 
 106:Drivers/STM32F4xx_HAL_Driver/Src/stm32f4xx_hal_dma_ex.c **** 
 107:Drivers/STM32F4xx_HAL_Driver/Src/stm32f4xx_hal_dma_ex.c **** /**
 108:Drivers/STM32F4xx_HAL_Driver/Src/stm32f4xx_hal_dma_ex.c ****   * @brief  Starts the multi_buffer DMA Transfer.
 109:Drivers/STM32F4xx_HAL_Driver/Src/stm32f4xx_hal_dma_ex.c ****   * @param  hdma       pointer to a DMA_HandleTypeDef structure that contains
 110:Drivers/STM32F4xx_HAL_Driver/Src/stm32f4xx_hal_dma_ex.c ****   *                     the configuration information for the specified DMA Stream.  
 111:Drivers/STM32F4xx_HAL_Driver/Src/stm32f4xx_hal_dma_ex.c ****   * @param  SrcAddress The source memory Buffer address
 112:Drivers/STM32F4xx_HAL_Driver/Src/stm32f4xx_hal_dma_ex.c ****   * @param  DstAddress The destination memory Buffer address
 113:Drivers/STM32F4xx_HAL_Driver/Src/stm32f4xx_hal_dma_ex.c ****   * @param  SecondMemAddress The second memory Buffer address in case of multi buffer Transfer  
 114:Drivers/STM32F4xx_HAL_Driver/Src/stm32f4xx_hal_dma_ex.c ****   * @param  DataLength The length of data to be transferred from source to destination
 115:Drivers/STM32F4xx_HAL_Driver/Src/stm32f4xx_hal_dma_ex.c ****   * @retval HAL status
 116:Drivers/STM32F4xx_HAL_Driver/Src/stm32f4xx_hal_dma_ex.c ****   */
 117:Drivers/STM32F4xx_HAL_Driver/Src/stm32f4xx_hal_dma_ex.c **** HAL_StatusTypeDef HAL_DMAEx_MultiBufferStart(DMA_HandleTypeDef *hdma, uint32_t SrcAddress, uint32_t
 118:Drivers/STM32F4xx_HAL_Driver/Src/stm32f4xx_hal_dma_ex.c **** {
 119:Drivers/STM32F4xx_HAL_Driver/Src/stm32f4xx_hal_dma_ex.c ****   HAL_StatusTypeDef status = HAL_OK;
 120:Drivers/STM32F4xx_HAL_Driver/Src/stm32f4xx_hal_dma_ex.c ****   
 121:Drivers/STM32F4xx_HAL_Driver/Src/stm32f4xx_hal_dma_ex.c ****   /* Check the parameters */
 122:Drivers/STM32F4xx_HAL_Driver/Src/stm32f4xx_hal_dma_ex.c ****   assert_param(IS_DMA_BUFFER_SIZE(DataLength));
 123:Drivers/STM32F4xx_HAL_Driver/Src/stm32f4xx_hal_dma_ex.c ****   
 124:Drivers/STM32F4xx_HAL_Driver/Src/stm32f4xx_hal_dma_ex.c ****   /* Memory-to-memory transfer not supported in double buffering mode */
 125:Drivers/STM32F4xx_HAL_Driver/Src/stm32f4xx_hal_dma_ex.c ****   if (hdma->Init.Direction == DMA_MEMORY_TO_MEMORY)
 126:Drivers/STM32F4xx_HAL_Driver/Src/stm32f4xx_hal_dma_ex.c ****   {
 127:Drivers/STM32F4xx_HAL_Driver/Src/stm32f4xx_hal_dma_ex.c ****     hdma->ErrorCode = HAL_DMA_ERROR_NOT_SUPPORTED;
 128:Drivers/STM32F4xx_HAL_Driver/Src/stm32f4xx_hal_dma_ex.c ****     status = HAL_ERROR;
 129:Drivers/STM32F4xx_HAL_Driver/Src/stm32f4xx_hal_dma_ex.c ****   }
 130:Drivers/STM32F4xx_HAL_Driver/Src/stm32f4xx_hal_dma_ex.c ****   else
 131:Drivers/STM32F4xx_HAL_Driver/Src/stm32f4xx_hal_dma_ex.c ****   {
 132:Drivers/STM32F4xx_HAL_Driver/Src/stm32f4xx_hal_dma_ex.c ****     /* Process Locked */
 133:Drivers/STM32F4xx_HAL_Driver/Src/stm32f4xx_hal_dma_ex.c ****     __HAL_LOCK(hdma);
 134:Drivers/STM32F4xx_HAL_Driver/Src/stm32f4xx_hal_dma_ex.c ****     
 135:Drivers/STM32F4xx_HAL_Driver/Src/stm32f4xx_hal_dma_ex.c ****     if(HAL_DMA_STATE_READY == hdma->State)
 136:Drivers/STM32F4xx_HAL_Driver/Src/stm32f4xx_hal_dma_ex.c ****     {
 137:Drivers/STM32F4xx_HAL_Driver/Src/stm32f4xx_hal_dma_ex.c ****       /* Change DMA peripheral state */
 138:Drivers/STM32F4xx_HAL_Driver/Src/stm32f4xx_hal_dma_ex.c ****       hdma->State = HAL_DMA_STATE_BUSY; 
 139:Drivers/STM32F4xx_HAL_Driver/Src/stm32f4xx_hal_dma_ex.c ****       
 140:Drivers/STM32F4xx_HAL_Driver/Src/stm32f4xx_hal_dma_ex.c ****       /* Enable the double buffer mode */
 141:Drivers/STM32F4xx_HAL_Driver/Src/stm32f4xx_hal_dma_ex.c ****       hdma->Instance->CR |= (uint32_t)DMA_SxCR_DBM;
 142:Drivers/STM32F4xx_HAL_Driver/Src/stm32f4xx_hal_dma_ex.c ****       
 143:Drivers/STM32F4xx_HAL_Driver/Src/stm32f4xx_hal_dma_ex.c ****       /* Configure DMA Stream destination address */
 144:Drivers/STM32F4xx_HAL_Driver/Src/stm32f4xx_hal_dma_ex.c ****       hdma->Instance->M1AR = SecondMemAddress;
 145:Drivers/STM32F4xx_HAL_Driver/Src/stm32f4xx_hal_dma_ex.c ****       
ARM GAS  /tmp/ccYYUFl4.s 			page 4


 146:Drivers/STM32F4xx_HAL_Driver/Src/stm32f4xx_hal_dma_ex.c ****       /* Configure the source, destination address and the data length */
 147:Drivers/STM32F4xx_HAL_Driver/Src/stm32f4xx_hal_dma_ex.c ****       DMA_MultiBufferSetConfig(hdma, SrcAddress, DstAddress, DataLength);
 148:Drivers/STM32F4xx_HAL_Driver/Src/stm32f4xx_hal_dma_ex.c ****       
 149:Drivers/STM32F4xx_HAL_Driver/Src/stm32f4xx_hal_dma_ex.c ****       /* Enable the peripheral */
 150:Drivers/STM32F4xx_HAL_Driver/Src/stm32f4xx_hal_dma_ex.c ****       __HAL_DMA_ENABLE(hdma);
 151:Drivers/STM32F4xx_HAL_Driver/Src/stm32f4xx_hal_dma_ex.c ****     }
 152:Drivers/STM32F4xx_HAL_Driver/Src/stm32f4xx_hal_dma_ex.c ****     else
 153:Drivers/STM32F4xx_HAL_Driver/Src/stm32f4xx_hal_dma_ex.c ****     {
 154:Drivers/STM32F4xx_HAL_Driver/Src/stm32f4xx_hal_dma_ex.c ****       /* Return error status */
 155:Drivers/STM32F4xx_HAL_Driver/Src/stm32f4xx_hal_dma_ex.c ****       status = HAL_BUSY;
 156:Drivers/STM32F4xx_HAL_Driver/Src/stm32f4xx_hal_dma_ex.c ****     }
 157:Drivers/STM32F4xx_HAL_Driver/Src/stm32f4xx_hal_dma_ex.c ****   }
 158:Drivers/STM32F4xx_HAL_Driver/Src/stm32f4xx_hal_dma_ex.c ****   return status;
 159:Drivers/STM32F4xx_HAL_Driver/Src/stm32f4xx_hal_dma_ex.c **** }
 160:Drivers/STM32F4xx_HAL_Driver/Src/stm32f4xx_hal_dma_ex.c **** 
 161:Drivers/STM32F4xx_HAL_Driver/Src/stm32f4xx_hal_dma_ex.c **** /**
 162:Drivers/STM32F4xx_HAL_Driver/Src/stm32f4xx_hal_dma_ex.c ****   * @brief  Starts the multi_buffer DMA Transfer with interrupt enabled.
 163:Drivers/STM32F4xx_HAL_Driver/Src/stm32f4xx_hal_dma_ex.c ****   * @param  hdma       pointer to a DMA_HandleTypeDef structure that contains
 164:Drivers/STM32F4xx_HAL_Driver/Src/stm32f4xx_hal_dma_ex.c ****   *                     the configuration information for the specified DMA Stream.  
 165:Drivers/STM32F4xx_HAL_Driver/Src/stm32f4xx_hal_dma_ex.c ****   * @param  SrcAddress The source memory Buffer address
 166:Drivers/STM32F4xx_HAL_Driver/Src/stm32f4xx_hal_dma_ex.c ****   * @param  DstAddress The destination memory Buffer address
 167:Drivers/STM32F4xx_HAL_Driver/Src/stm32f4xx_hal_dma_ex.c ****   * @param  SecondMemAddress The second memory Buffer address in case of multi buffer Transfer  
 168:Drivers/STM32F4xx_HAL_Driver/Src/stm32f4xx_hal_dma_ex.c ****   * @param  DataLength The length of data to be transferred from source to destination
 169:Drivers/STM32F4xx_HAL_Driver/Src/stm32f4xx_hal_dma_ex.c ****   * @retval HAL status
 170:Drivers/STM32F4xx_HAL_Driver/Src/stm32f4xx_hal_dma_ex.c ****   */
 171:Drivers/STM32F4xx_HAL_Driver/Src/stm32f4xx_hal_dma_ex.c **** HAL_StatusTypeDef HAL_DMAEx_MultiBufferStart_IT(DMA_HandleTypeDef *hdma, uint32_t SrcAddress, uint3
 172:Drivers/STM32F4xx_HAL_Driver/Src/stm32f4xx_hal_dma_ex.c **** {
 173:Drivers/STM32F4xx_HAL_Driver/Src/stm32f4xx_hal_dma_ex.c ****   HAL_StatusTypeDef status = HAL_OK;
 174:Drivers/STM32F4xx_HAL_Driver/Src/stm32f4xx_hal_dma_ex.c ****   
 175:Drivers/STM32F4xx_HAL_Driver/Src/stm32f4xx_hal_dma_ex.c ****   /* Check the parameters */
 176:Drivers/STM32F4xx_HAL_Driver/Src/stm32f4xx_hal_dma_ex.c ****   assert_param(IS_DMA_BUFFER_SIZE(DataLength));
 177:Drivers/STM32F4xx_HAL_Driver/Src/stm32f4xx_hal_dma_ex.c ****   
 178:Drivers/STM32F4xx_HAL_Driver/Src/stm32f4xx_hal_dma_ex.c ****   /* Memory-to-memory transfer not supported in double buffering mode */
 179:Drivers/STM32F4xx_HAL_Driver/Src/stm32f4xx_hal_dma_ex.c ****   if (hdma->Init.Direction == DMA_MEMORY_TO_MEMORY)
 180:Drivers/STM32F4xx_HAL_Driver/Src/stm32f4xx_hal_dma_ex.c ****   {
 181:Drivers/STM32F4xx_HAL_Driver/Src/stm32f4xx_hal_dma_ex.c ****     hdma->ErrorCode = HAL_DMA_ERROR_NOT_SUPPORTED;
 182:Drivers/STM32F4xx_HAL_Driver/Src/stm32f4xx_hal_dma_ex.c ****     return HAL_ERROR;
 183:Drivers/STM32F4xx_HAL_Driver/Src/stm32f4xx_hal_dma_ex.c ****   }
 184:Drivers/STM32F4xx_HAL_Driver/Src/stm32f4xx_hal_dma_ex.c ****   
 185:Drivers/STM32F4xx_HAL_Driver/Src/stm32f4xx_hal_dma_ex.c ****   /* Check callback functions */
 186:Drivers/STM32F4xx_HAL_Driver/Src/stm32f4xx_hal_dma_ex.c ****   if ((NULL == hdma->XferCpltCallback) || (NULL == hdma->XferM1CpltCallback) || (NULL == hdma->Xfer
 187:Drivers/STM32F4xx_HAL_Driver/Src/stm32f4xx_hal_dma_ex.c ****   {
 188:Drivers/STM32F4xx_HAL_Driver/Src/stm32f4xx_hal_dma_ex.c ****     hdma->ErrorCode = HAL_DMA_ERROR_PARAM;
 189:Drivers/STM32F4xx_HAL_Driver/Src/stm32f4xx_hal_dma_ex.c ****     return HAL_ERROR;
 190:Drivers/STM32F4xx_HAL_Driver/Src/stm32f4xx_hal_dma_ex.c ****   }
 191:Drivers/STM32F4xx_HAL_Driver/Src/stm32f4xx_hal_dma_ex.c ****   
 192:Drivers/STM32F4xx_HAL_Driver/Src/stm32f4xx_hal_dma_ex.c ****   /* Process locked */
 193:Drivers/STM32F4xx_HAL_Driver/Src/stm32f4xx_hal_dma_ex.c ****   __HAL_LOCK(hdma);
 194:Drivers/STM32F4xx_HAL_Driver/Src/stm32f4xx_hal_dma_ex.c ****   
 195:Drivers/STM32F4xx_HAL_Driver/Src/stm32f4xx_hal_dma_ex.c ****   if(HAL_DMA_STATE_READY == hdma->State)
 196:Drivers/STM32F4xx_HAL_Driver/Src/stm32f4xx_hal_dma_ex.c ****   {
 197:Drivers/STM32F4xx_HAL_Driver/Src/stm32f4xx_hal_dma_ex.c ****     /* Change DMA peripheral state */
 198:Drivers/STM32F4xx_HAL_Driver/Src/stm32f4xx_hal_dma_ex.c ****     hdma->State = HAL_DMA_STATE_BUSY;
 199:Drivers/STM32F4xx_HAL_Driver/Src/stm32f4xx_hal_dma_ex.c ****     
 200:Drivers/STM32F4xx_HAL_Driver/Src/stm32f4xx_hal_dma_ex.c ****     /* Initialize the error code */
 201:Drivers/STM32F4xx_HAL_Driver/Src/stm32f4xx_hal_dma_ex.c ****     hdma->ErrorCode = HAL_DMA_ERROR_NONE;
 202:Drivers/STM32F4xx_HAL_Driver/Src/stm32f4xx_hal_dma_ex.c ****     
ARM GAS  /tmp/ccYYUFl4.s 			page 5


 203:Drivers/STM32F4xx_HAL_Driver/Src/stm32f4xx_hal_dma_ex.c ****     /* Enable the Double buffer mode */
 204:Drivers/STM32F4xx_HAL_Driver/Src/stm32f4xx_hal_dma_ex.c ****     hdma->Instance->CR |= (uint32_t)DMA_SxCR_DBM;
 205:Drivers/STM32F4xx_HAL_Driver/Src/stm32f4xx_hal_dma_ex.c ****     
 206:Drivers/STM32F4xx_HAL_Driver/Src/stm32f4xx_hal_dma_ex.c ****     /* Configure DMA Stream destination address */
 207:Drivers/STM32F4xx_HAL_Driver/Src/stm32f4xx_hal_dma_ex.c ****     hdma->Instance->M1AR = SecondMemAddress;
 208:Drivers/STM32F4xx_HAL_Driver/Src/stm32f4xx_hal_dma_ex.c ****     
 209:Drivers/STM32F4xx_HAL_Driver/Src/stm32f4xx_hal_dma_ex.c ****     /* Configure the source, destination address and the data length */
 210:Drivers/STM32F4xx_HAL_Driver/Src/stm32f4xx_hal_dma_ex.c ****     DMA_MultiBufferSetConfig(hdma, SrcAddress, DstAddress, DataLength); 
 211:Drivers/STM32F4xx_HAL_Driver/Src/stm32f4xx_hal_dma_ex.c ****     
 212:Drivers/STM32F4xx_HAL_Driver/Src/stm32f4xx_hal_dma_ex.c ****     /* Clear all flags */
 213:Drivers/STM32F4xx_HAL_Driver/Src/stm32f4xx_hal_dma_ex.c ****     __HAL_DMA_CLEAR_FLAG (hdma, __HAL_DMA_GET_TC_FLAG_INDEX(hdma));
 214:Drivers/STM32F4xx_HAL_Driver/Src/stm32f4xx_hal_dma_ex.c ****     __HAL_DMA_CLEAR_FLAG (hdma, __HAL_DMA_GET_HT_FLAG_INDEX(hdma));
 215:Drivers/STM32F4xx_HAL_Driver/Src/stm32f4xx_hal_dma_ex.c ****     __HAL_DMA_CLEAR_FLAG (hdma, __HAL_DMA_GET_TE_FLAG_INDEX(hdma));
 216:Drivers/STM32F4xx_HAL_Driver/Src/stm32f4xx_hal_dma_ex.c ****     __HAL_DMA_CLEAR_FLAG (hdma, __HAL_DMA_GET_DME_FLAG_INDEX(hdma));
 217:Drivers/STM32F4xx_HAL_Driver/Src/stm32f4xx_hal_dma_ex.c ****     __HAL_DMA_CLEAR_FLAG (hdma, __HAL_DMA_GET_FE_FLAG_INDEX(hdma));
 218:Drivers/STM32F4xx_HAL_Driver/Src/stm32f4xx_hal_dma_ex.c **** 
 219:Drivers/STM32F4xx_HAL_Driver/Src/stm32f4xx_hal_dma_ex.c ****     /* Enable Common interrupts*/
 220:Drivers/STM32F4xx_HAL_Driver/Src/stm32f4xx_hal_dma_ex.c ****     hdma->Instance->CR  |= DMA_IT_TC | DMA_IT_TE | DMA_IT_DME;
 221:Drivers/STM32F4xx_HAL_Driver/Src/stm32f4xx_hal_dma_ex.c ****     hdma->Instance->FCR |= DMA_IT_FE;
 222:Drivers/STM32F4xx_HAL_Driver/Src/stm32f4xx_hal_dma_ex.c ****     
 223:Drivers/STM32F4xx_HAL_Driver/Src/stm32f4xx_hal_dma_ex.c ****     if((hdma->XferHalfCpltCallback != NULL) || (hdma->XferM1HalfCpltCallback != NULL))
 224:Drivers/STM32F4xx_HAL_Driver/Src/stm32f4xx_hal_dma_ex.c ****     {
 225:Drivers/STM32F4xx_HAL_Driver/Src/stm32f4xx_hal_dma_ex.c ****       hdma->Instance->CR  |= DMA_IT_HT;
 226:Drivers/STM32F4xx_HAL_Driver/Src/stm32f4xx_hal_dma_ex.c ****     }
 227:Drivers/STM32F4xx_HAL_Driver/Src/stm32f4xx_hal_dma_ex.c ****     
 228:Drivers/STM32F4xx_HAL_Driver/Src/stm32f4xx_hal_dma_ex.c ****     /* Enable the peripheral */
 229:Drivers/STM32F4xx_HAL_Driver/Src/stm32f4xx_hal_dma_ex.c ****     __HAL_DMA_ENABLE(hdma); 
 230:Drivers/STM32F4xx_HAL_Driver/Src/stm32f4xx_hal_dma_ex.c ****   }
 231:Drivers/STM32F4xx_HAL_Driver/Src/stm32f4xx_hal_dma_ex.c ****   else
 232:Drivers/STM32F4xx_HAL_Driver/Src/stm32f4xx_hal_dma_ex.c ****   {     
 233:Drivers/STM32F4xx_HAL_Driver/Src/stm32f4xx_hal_dma_ex.c ****     /* Process unlocked */
 234:Drivers/STM32F4xx_HAL_Driver/Src/stm32f4xx_hal_dma_ex.c ****     __HAL_UNLOCK(hdma);	  
 235:Drivers/STM32F4xx_HAL_Driver/Src/stm32f4xx_hal_dma_ex.c ****     
 236:Drivers/STM32F4xx_HAL_Driver/Src/stm32f4xx_hal_dma_ex.c ****     /* Return error status */
 237:Drivers/STM32F4xx_HAL_Driver/Src/stm32f4xx_hal_dma_ex.c ****     status = HAL_BUSY;
 238:Drivers/STM32F4xx_HAL_Driver/Src/stm32f4xx_hal_dma_ex.c ****   }  
 239:Drivers/STM32F4xx_HAL_Driver/Src/stm32f4xx_hal_dma_ex.c ****   return status; 
 240:Drivers/STM32F4xx_HAL_Driver/Src/stm32f4xx_hal_dma_ex.c **** }
 241:Drivers/STM32F4xx_HAL_Driver/Src/stm32f4xx_hal_dma_ex.c **** 
 242:Drivers/STM32F4xx_HAL_Driver/Src/stm32f4xx_hal_dma_ex.c **** /**
 243:Drivers/STM32F4xx_HAL_Driver/Src/stm32f4xx_hal_dma_ex.c ****   * @brief  Change the memory0 or memory1 address on the fly.
 244:Drivers/STM32F4xx_HAL_Driver/Src/stm32f4xx_hal_dma_ex.c ****   * @param  hdma       pointer to a DMA_HandleTypeDef structure that contains
 245:Drivers/STM32F4xx_HAL_Driver/Src/stm32f4xx_hal_dma_ex.c ****   *                     the configuration information for the specified DMA Stream.  
 246:Drivers/STM32F4xx_HAL_Driver/Src/stm32f4xx_hal_dma_ex.c ****   * @param  Address    The new address
 247:Drivers/STM32F4xx_HAL_Driver/Src/stm32f4xx_hal_dma_ex.c ****   * @param  memory     the memory to be changed, This parameter can be one of 
 248:Drivers/STM32F4xx_HAL_Driver/Src/stm32f4xx_hal_dma_ex.c ****   *                     the following values:
 249:Drivers/STM32F4xx_HAL_Driver/Src/stm32f4xx_hal_dma_ex.c ****   *                      MEMORY0 /
 250:Drivers/STM32F4xx_HAL_Driver/Src/stm32f4xx_hal_dma_ex.c ****   *                      MEMORY1
 251:Drivers/STM32F4xx_HAL_Driver/Src/stm32f4xx_hal_dma_ex.c ****   * @note   The MEMORY0 address can be changed only when the current transfer use
 252:Drivers/STM32F4xx_HAL_Driver/Src/stm32f4xx_hal_dma_ex.c ****   *         MEMORY1 and the MEMORY1 address can be changed only when the current 
 253:Drivers/STM32F4xx_HAL_Driver/Src/stm32f4xx_hal_dma_ex.c ****   *         transfer use MEMORY0.
 254:Drivers/STM32F4xx_HAL_Driver/Src/stm32f4xx_hal_dma_ex.c ****   * @retval HAL status
 255:Drivers/STM32F4xx_HAL_Driver/Src/stm32f4xx_hal_dma_ex.c ****   */
 256:Drivers/STM32F4xx_HAL_Driver/Src/stm32f4xx_hal_dma_ex.c **** HAL_StatusTypeDef HAL_DMAEx_ChangeMemory(DMA_HandleTypeDef *hdma, uint32_t Address, HAL_DMA_MemoryT
 257:Drivers/STM32F4xx_HAL_Driver/Src/stm32f4xx_hal_dma_ex.c **** {
 258:Drivers/STM32F4xx_HAL_Driver/Src/stm32f4xx_hal_dma_ex.c ****   if(memory == MEMORY0)
 259:Drivers/STM32F4xx_HAL_Driver/Src/stm32f4xx_hal_dma_ex.c ****   {
ARM GAS  /tmp/ccYYUFl4.s 			page 6


 260:Drivers/STM32F4xx_HAL_Driver/Src/stm32f4xx_hal_dma_ex.c ****     /* change the memory0 address */
 261:Drivers/STM32F4xx_HAL_Driver/Src/stm32f4xx_hal_dma_ex.c ****     hdma->Instance->M0AR = Address;
 262:Drivers/STM32F4xx_HAL_Driver/Src/stm32f4xx_hal_dma_ex.c ****   }
 263:Drivers/STM32F4xx_HAL_Driver/Src/stm32f4xx_hal_dma_ex.c ****   else
 264:Drivers/STM32F4xx_HAL_Driver/Src/stm32f4xx_hal_dma_ex.c ****   {
 265:Drivers/STM32F4xx_HAL_Driver/Src/stm32f4xx_hal_dma_ex.c ****     /* change the memory1 address */
 266:Drivers/STM32F4xx_HAL_Driver/Src/stm32f4xx_hal_dma_ex.c ****     hdma->Instance->M1AR = Address;
 267:Drivers/STM32F4xx_HAL_Driver/Src/stm32f4xx_hal_dma_ex.c ****   }
 268:Drivers/STM32F4xx_HAL_Driver/Src/stm32f4xx_hal_dma_ex.c **** 
 269:Drivers/STM32F4xx_HAL_Driver/Src/stm32f4xx_hal_dma_ex.c ****   return HAL_OK;
 270:Drivers/STM32F4xx_HAL_Driver/Src/stm32f4xx_hal_dma_ex.c **** }
 271:Drivers/STM32F4xx_HAL_Driver/Src/stm32f4xx_hal_dma_ex.c **** 
 272:Drivers/STM32F4xx_HAL_Driver/Src/stm32f4xx_hal_dma_ex.c **** /**
 273:Drivers/STM32F4xx_HAL_Driver/Src/stm32f4xx_hal_dma_ex.c ****   * @}
 274:Drivers/STM32F4xx_HAL_Driver/Src/stm32f4xx_hal_dma_ex.c ****   */
 275:Drivers/STM32F4xx_HAL_Driver/Src/stm32f4xx_hal_dma_ex.c **** 
 276:Drivers/STM32F4xx_HAL_Driver/Src/stm32f4xx_hal_dma_ex.c **** /**
 277:Drivers/STM32F4xx_HAL_Driver/Src/stm32f4xx_hal_dma_ex.c ****   * @}
 278:Drivers/STM32F4xx_HAL_Driver/Src/stm32f4xx_hal_dma_ex.c ****   */
 279:Drivers/STM32F4xx_HAL_Driver/Src/stm32f4xx_hal_dma_ex.c **** 
 280:Drivers/STM32F4xx_HAL_Driver/Src/stm32f4xx_hal_dma_ex.c **** /** @addtogroup DMAEx_Private_Functions
 281:Drivers/STM32F4xx_HAL_Driver/Src/stm32f4xx_hal_dma_ex.c ****   * @{
 282:Drivers/STM32F4xx_HAL_Driver/Src/stm32f4xx_hal_dma_ex.c ****   */
 283:Drivers/STM32F4xx_HAL_Driver/Src/stm32f4xx_hal_dma_ex.c **** 
 284:Drivers/STM32F4xx_HAL_Driver/Src/stm32f4xx_hal_dma_ex.c **** /**
 285:Drivers/STM32F4xx_HAL_Driver/Src/stm32f4xx_hal_dma_ex.c ****   * @brief  Set the DMA Transfer parameter.
 286:Drivers/STM32F4xx_HAL_Driver/Src/stm32f4xx_hal_dma_ex.c ****   * @param  hdma       pointer to a DMA_HandleTypeDef structure that contains
 287:Drivers/STM32F4xx_HAL_Driver/Src/stm32f4xx_hal_dma_ex.c ****   *                     the configuration information for the specified DMA Stream.  
 288:Drivers/STM32F4xx_HAL_Driver/Src/stm32f4xx_hal_dma_ex.c ****   * @param  SrcAddress The source memory Buffer address
 289:Drivers/STM32F4xx_HAL_Driver/Src/stm32f4xx_hal_dma_ex.c ****   * @param  DstAddress The destination memory Buffer address
 290:Drivers/STM32F4xx_HAL_Driver/Src/stm32f4xx_hal_dma_ex.c ****   * @param  DataLength The length of data to be transferred from source to destination
 291:Drivers/STM32F4xx_HAL_Driver/Src/stm32f4xx_hal_dma_ex.c ****   * @retval HAL status
 292:Drivers/STM32F4xx_HAL_Driver/Src/stm32f4xx_hal_dma_ex.c ****   */
 293:Drivers/STM32F4xx_HAL_Driver/Src/stm32f4xx_hal_dma_ex.c **** static void DMA_MultiBufferSetConfig(DMA_HandleTypeDef *hdma, uint32_t SrcAddress, uint32_t DstAddr
 294:Drivers/STM32F4xx_HAL_Driver/Src/stm32f4xx_hal_dma_ex.c **** {  
  28              		.loc 1 294 0
  29              		.cfi_startproc
  30              		@ args = 0, pretend = 0, frame = 0
  31              		@ frame_needed = 0, uses_anonymous_args = 0
  32              		@ link register save eliminated.
  33              	.LVL0:
  34 0000 10B4     		push	{r4}
  35              	.LCFI0:
  36              		.cfi_def_cfa_offset 4
  37              		.cfi_offset 4, -4
 295:Drivers/STM32F4xx_HAL_Driver/Src/stm32f4xx_hal_dma_ex.c ****   /* Configure DMA Stream data length */
 296:Drivers/STM32F4xx_HAL_Driver/Src/stm32f4xx_hal_dma_ex.c ****   hdma->Instance->NDTR = DataLength;
  38              		.loc 1 296 0
  39 0002 0468     		ldr	r4, [r0]
  40 0004 6360     		str	r3, [r4, #4]
 297:Drivers/STM32F4xx_HAL_Driver/Src/stm32f4xx_hal_dma_ex.c ****   
 298:Drivers/STM32F4xx_HAL_Driver/Src/stm32f4xx_hal_dma_ex.c ****   /* Peripheral to Memory */
 299:Drivers/STM32F4xx_HAL_Driver/Src/stm32f4xx_hal_dma_ex.c ****   if((hdma->Init.Direction) == DMA_MEMORY_TO_PERIPH)
  41              		.loc 1 299 0
  42 0006 8368     		ldr	r3, [r0, #8]
  43              	.LVL1:
  44 0008 402B     		cmp	r3, #64
ARM GAS  /tmp/ccYYUFl4.s 			page 7


  45 000a 04D1     		bne	.L2
 300:Drivers/STM32F4xx_HAL_Driver/Src/stm32f4xx_hal_dma_ex.c ****   {   
 301:Drivers/STM32F4xx_HAL_Driver/Src/stm32f4xx_hal_dma_ex.c ****     /* Configure DMA Stream destination address */
 302:Drivers/STM32F4xx_HAL_Driver/Src/stm32f4xx_hal_dma_ex.c ****     hdma->Instance->PAR = DstAddress;
  46              		.loc 1 302 0
  47 000c 0368     		ldr	r3, [r0]
  48 000e 9A60     		str	r2, [r3, #8]
  49              	.LVL2:
 303:Drivers/STM32F4xx_HAL_Driver/Src/stm32f4xx_hal_dma_ex.c ****     
 304:Drivers/STM32F4xx_HAL_Driver/Src/stm32f4xx_hal_dma_ex.c ****     /* Configure DMA Stream source address */
 305:Drivers/STM32F4xx_HAL_Driver/Src/stm32f4xx_hal_dma_ex.c ****     hdma->Instance->M0AR = SrcAddress;
  50              		.loc 1 305 0
  51 0010 0368     		ldr	r3, [r0]
  52 0012 D960     		str	r1, [r3, #12]
  53 0014 03E0     		b	.L1
  54              	.LVL3:
  55              	.L2:
 306:Drivers/STM32F4xx_HAL_Driver/Src/stm32f4xx_hal_dma_ex.c ****   }
 307:Drivers/STM32F4xx_HAL_Driver/Src/stm32f4xx_hal_dma_ex.c ****   /* Memory to Peripheral */
 308:Drivers/STM32F4xx_HAL_Driver/Src/stm32f4xx_hal_dma_ex.c ****   else
 309:Drivers/STM32F4xx_HAL_Driver/Src/stm32f4xx_hal_dma_ex.c ****   {
 310:Drivers/STM32F4xx_HAL_Driver/Src/stm32f4xx_hal_dma_ex.c ****     /* Configure DMA Stream source address */
 311:Drivers/STM32F4xx_HAL_Driver/Src/stm32f4xx_hal_dma_ex.c ****     hdma->Instance->PAR = SrcAddress;
  56              		.loc 1 311 0
  57 0016 0368     		ldr	r3, [r0]
  58 0018 9960     		str	r1, [r3, #8]
  59              	.LVL4:
 312:Drivers/STM32F4xx_HAL_Driver/Src/stm32f4xx_hal_dma_ex.c ****     
 313:Drivers/STM32F4xx_HAL_Driver/Src/stm32f4xx_hal_dma_ex.c ****     /* Configure DMA Stream destination address */
 314:Drivers/STM32F4xx_HAL_Driver/Src/stm32f4xx_hal_dma_ex.c ****     hdma->Instance->M0AR = DstAddress;
  60              		.loc 1 314 0
  61 001a 0368     		ldr	r3, [r0]
  62 001c DA60     		str	r2, [r3, #12]
  63              	.L1:
 315:Drivers/STM32F4xx_HAL_Driver/Src/stm32f4xx_hal_dma_ex.c ****   }
 316:Drivers/STM32F4xx_HAL_Driver/Src/stm32f4xx_hal_dma_ex.c **** }
  64              		.loc 1 316 0
  65 001e 5DF8044B 		ldr	r4, [sp], #4
  66              	.LCFI1:
  67              		.cfi_restore 4
  68              		.cfi_def_cfa_offset 0
  69 0022 7047     		bx	lr
  70              		.cfi_endproc
  71              	.LFE126:
  73              		.section	.text.HAL_DMAEx_MultiBufferStart,"ax",%progbits
  74              		.align	2
  75              		.global	HAL_DMAEx_MultiBufferStart
  76              		.thumb
  77              		.thumb_func
  79              	HAL_DMAEx_MultiBufferStart:
  80              	.LFB123:
 118:Drivers/STM32F4xx_HAL_Driver/Src/stm32f4xx_hal_dma_ex.c ****   HAL_StatusTypeDef status = HAL_OK;
  81              		.loc 1 118 0
  82              		.cfi_startproc
  83              		@ args = 4, pretend = 0, frame = 0
  84              		@ frame_needed = 0, uses_anonymous_args = 0
  85              	.LVL5:
ARM GAS  /tmp/ccYYUFl4.s 			page 8


  86 0000 38B5     		push	{r3, r4, r5, lr}
  87              	.LCFI2:
  88              		.cfi_def_cfa_offset 16
  89              		.cfi_offset 3, -16
  90              		.cfi_offset 4, -12
  91              		.cfi_offset 5, -8
  92              		.cfi_offset 14, -4
  93              	.LVL6:
 125:Drivers/STM32F4xx_HAL_Driver/Src/stm32f4xx_hal_dma_ex.c ****   {
  94              		.loc 1 125 0
  95 0002 8468     		ldr	r4, [r0, #8]
  96 0004 802C     		cmp	r4, #128
  97 0006 04D1     		bne	.L6
 127:Drivers/STM32F4xx_HAL_Driver/Src/stm32f4xx_hal_dma_ex.c ****     status = HAL_ERROR;
  98              		.loc 1 127 0
  99 0008 4FF48073 		mov	r3, #256
 100              	.LVL7:
 101 000c 4365     		str	r3, [r0, #84]
 102              	.LVL8:
 128:Drivers/STM32F4xx_HAL_Driver/Src/stm32f4xx_hal_dma_ex.c ****   }
 103              		.loc 1 128 0
 104 000e 0120     		movs	r0, #1
 105              	.LVL9:
 106 0010 38BD     		pop	{r3, r4, r5, pc}
 107              	.LVL10:
 108              	.L6:
 133:Drivers/STM32F4xx_HAL_Driver/Src/stm32f4xx_hal_dma_ex.c ****     
 109              		.loc 1 133 0
 110 0012 90F83440 		ldrb	r4, [r0, #52]	@ zero_extendqisi2
 111 0016 012C     		cmp	r4, #1
 112 0018 1FD0     		beq	.L9
 133:Drivers/STM32F4xx_HAL_Driver/Src/stm32f4xx_hal_dma_ex.c ****     
 113              		.loc 1 133 0 is_stmt 0 discriminator 2
 114 001a 0124     		movs	r4, #1
 115 001c 80F83440 		strb	r4, [r0, #52]
 135:Drivers/STM32F4xx_HAL_Driver/Src/stm32f4xx_hal_dma_ex.c ****     {
 116              		.loc 1 135 0 is_stmt 1 discriminator 2
 117 0020 90F83540 		ldrb	r4, [r0, #53]	@ zero_extendqisi2
 118 0024 E4B2     		uxtb	r4, r4
 119 0026 012C     		cmp	r4, #1
 120 0028 15D1     		bne	.L10
 121 002a 0446     		mov	r4, r0
 138:Drivers/STM32F4xx_HAL_Driver/Src/stm32f4xx_hal_dma_ex.c ****       
 122              		.loc 1 138 0
 123 002c 0220     		movs	r0, #2
 124              	.LVL11:
 125 002e 84F83500 		strb	r0, [r4, #53]
 141:Drivers/STM32F4xx_HAL_Driver/Src/stm32f4xx_hal_dma_ex.c ****       
 126              		.loc 1 141 0
 127 0032 2568     		ldr	r5, [r4]
 128 0034 2868     		ldr	r0, [r5]
 129 0036 40F48020 		orr	r0, r0, #262144
 130 003a 2860     		str	r0, [r5]
 144:Drivers/STM32F4xx_HAL_Driver/Src/stm32f4xx_hal_dma_ex.c ****       
 131              		.loc 1 144 0
 132 003c 2068     		ldr	r0, [r4]
 133 003e 0361     		str	r3, [r0, #16]
ARM GAS  /tmp/ccYYUFl4.s 			page 9


 147:Drivers/STM32F4xx_HAL_Driver/Src/stm32f4xx_hal_dma_ex.c ****       
 134              		.loc 1 147 0
 135 0040 2046     		mov	r0, r4
 136 0042 049B     		ldr	r3, [sp, #16]
 137              	.LVL12:
 138 0044 FFF7FEFF 		bl	DMA_MultiBufferSetConfig
 139              	.LVL13:
 150:Drivers/STM32F4xx_HAL_Driver/Src/stm32f4xx_hal_dma_ex.c ****     }
 140              		.loc 1 150 0
 141 0048 2268     		ldr	r2, [r4]
 142 004a 1368     		ldr	r3, [r2]
 143 004c 43F00103 		orr	r3, r3, #1
 144 0050 1360     		str	r3, [r2]
 119:Drivers/STM32F4xx_HAL_Driver/Src/stm32f4xx_hal_dma_ex.c ****   
 145              		.loc 1 119 0
 146 0052 0020     		movs	r0, #0
 147 0054 38BD     		pop	{r3, r4, r5, pc}
 148              	.LVL14:
 149              	.L10:
 155:Drivers/STM32F4xx_HAL_Driver/Src/stm32f4xx_hal_dma_ex.c ****     }
 150              		.loc 1 155 0
 151 0056 0220     		movs	r0, #2
 152              	.LVL15:
 158:Drivers/STM32F4xx_HAL_Driver/Src/stm32f4xx_hal_dma_ex.c **** }
 153              		.loc 1 158 0
 154 0058 38BD     		pop	{r3, r4, r5, pc}
 155              	.LVL16:
 156              	.L9:
 133:Drivers/STM32F4xx_HAL_Driver/Src/stm32f4xx_hal_dma_ex.c ****     
 157              		.loc 1 133 0
 158 005a 0220     		movs	r0, #2
 159              	.LVL17:
 159:Drivers/STM32F4xx_HAL_Driver/Src/stm32f4xx_hal_dma_ex.c **** 
 160              		.loc 1 159 0
 161 005c 38BD     		pop	{r3, r4, r5, pc}
 162              		.cfi_endproc
 163              	.LFE123:
 165 005e 00BF     		.section	.text.HAL_DMAEx_MultiBufferStart_IT,"ax",%progbits
 166              		.align	2
 167              		.global	HAL_DMAEx_MultiBufferStart_IT
 168              		.thumb
 169              		.thumb_func
 171              	HAL_DMAEx_MultiBufferStart_IT:
 172              	.LFB124:
 172:Drivers/STM32F4xx_HAL_Driver/Src/stm32f4xx_hal_dma_ex.c ****   HAL_StatusTypeDef status = HAL_OK;
 173              		.loc 1 172 0
 174              		.cfi_startproc
 175              		@ args = 4, pretend = 0, frame = 0
 176              		@ frame_needed = 0, uses_anonymous_args = 0
 177              	.LVL18:
 178 0000 38B5     		push	{r3, r4, r5, lr}
 179              	.LCFI3:
 180              		.cfi_def_cfa_offset 16
 181              		.cfi_offset 3, -16
 182              		.cfi_offset 4, -12
 183              		.cfi_offset 5, -8
 184              		.cfi_offset 14, -4
ARM GAS  /tmp/ccYYUFl4.s 			page 10


 185              	.LVL19:
 179:Drivers/STM32F4xx_HAL_Driver/Src/stm32f4xx_hal_dma_ex.c ****   {
 186              		.loc 1 179 0
 187 0002 8468     		ldr	r4, [r0, #8]
 188 0004 802C     		cmp	r4, #128
 189 0006 04D1     		bne	.L13
 181:Drivers/STM32F4xx_HAL_Driver/Src/stm32f4xx_hal_dma_ex.c ****     return HAL_ERROR;
 190              		.loc 1 181 0
 191 0008 4FF48073 		mov	r3, #256
 192              	.LVL20:
 193 000c 4365     		str	r3, [r0, #84]
 182:Drivers/STM32F4xx_HAL_Driver/Src/stm32f4xx_hal_dma_ex.c ****   }
 194              		.loc 1 182 0
 195 000e 0120     		movs	r0, #1
 196              	.LVL21:
 197 0010 38BD     		pop	{r3, r4, r5, pc}
 198              	.LVL22:
 199              	.L13:
 186:Drivers/STM32F4xx_HAL_Driver/Src/stm32f4xx_hal_dma_ex.c ****   {
 200              		.loc 1 186 0
 201 0012 C46B     		ldr	r4, [r0, #60]
 202 0014 1CB1     		cbz	r4, .L15
 186:Drivers/STM32F4xx_HAL_Driver/Src/stm32f4xx_hal_dma_ex.c ****   {
 203              		.loc 1 186 0 is_stmt 0 discriminator 1
 204 0016 446C     		ldr	r4, [r0, #68]
 205 0018 0CB1     		cbz	r4, .L15
 186:Drivers/STM32F4xx_HAL_Driver/Src/stm32f4xx_hal_dma_ex.c ****   {
 206              		.loc 1 186 0 discriminator 2
 207 001a C46C     		ldr	r4, [r0, #76]
 208 001c 1CB9     		cbnz	r4, .L16
 209              	.L15:
 188:Drivers/STM32F4xx_HAL_Driver/Src/stm32f4xx_hal_dma_ex.c ****     return HAL_ERROR;
 210              		.loc 1 188 0 is_stmt 1
 211 001e 4023     		movs	r3, #64
 212              	.LVL23:
 213 0020 4365     		str	r3, [r0, #84]
 189:Drivers/STM32F4xx_HAL_Driver/Src/stm32f4xx_hal_dma_ex.c ****   }
 214              		.loc 1 189 0
 215 0022 0120     		movs	r0, #1
 216              	.LVL24:
 217 0024 38BD     		pop	{r3, r4, r5, pc}
 218              	.LVL25:
 219              	.L16:
 193:Drivers/STM32F4xx_HAL_Driver/Src/stm32f4xx_hal_dma_ex.c ****   
 220              		.loc 1 193 0
 221 0026 90F83440 		ldrb	r4, [r0, #52]	@ zero_extendqisi2
 222 002a 012C     		cmp	r4, #1
 223 002c 00F01C87 		beq	.L286
 193:Drivers/STM32F4xx_HAL_Driver/Src/stm32f4xx_hal_dma_ex.c ****   
 224              		.loc 1 193 0 is_stmt 0 discriminator 2
 225 0030 0124     		movs	r4, #1
 226 0032 80F83440 		strb	r4, [r0, #52]
 195:Drivers/STM32F4xx_HAL_Driver/Src/stm32f4xx_hal_dma_ex.c ****   {
 227              		.loc 1 195 0 is_stmt 1 discriminator 2
 228 0036 90F83540 		ldrb	r4, [r0, #53]	@ zero_extendqisi2
 229 003a E4B2     		uxtb	r4, r4
 230 003c 012C     		cmp	r4, #1
ARM GAS  /tmp/ccYYUFl4.s 			page 11


 231 003e 40F00E87 		bne	.L17
 232 0042 0446     		mov	r4, r0
 198:Drivers/STM32F4xx_HAL_Driver/Src/stm32f4xx_hal_dma_ex.c ****     
 233              		.loc 1 198 0
 234 0044 0220     		movs	r0, #2
 235              	.LVL26:
 236 0046 84F83500 		strb	r0, [r4, #53]
 201:Drivers/STM32F4xx_HAL_Driver/Src/stm32f4xx_hal_dma_ex.c ****     
 237              		.loc 1 201 0
 238 004a 0020     		movs	r0, #0
 239 004c 6065     		str	r0, [r4, #84]
 204:Drivers/STM32F4xx_HAL_Driver/Src/stm32f4xx_hal_dma_ex.c ****     
 240              		.loc 1 204 0
 241 004e 2568     		ldr	r5, [r4]
 242 0050 2868     		ldr	r0, [r5]
 243 0052 40F48020 		orr	r0, r0, #262144
 244 0056 2860     		str	r0, [r5]
 207:Drivers/STM32F4xx_HAL_Driver/Src/stm32f4xx_hal_dma_ex.c ****     
 245              		.loc 1 207 0
 246 0058 2068     		ldr	r0, [r4]
 247 005a 0361     		str	r3, [r0, #16]
 210:Drivers/STM32F4xx_HAL_Driver/Src/stm32f4xx_hal_dma_ex.c ****     
 248              		.loc 1 210 0
 249 005c 2046     		mov	r0, r4
 250 005e 049B     		ldr	r3, [sp, #16]
 251              	.LVL27:
 252 0060 FFF7FEFF 		bl	DMA_MultiBufferSetConfig
 253              	.LVL28:
 213:Drivers/STM32F4xx_HAL_Driver/Src/stm32f4xx_hal_dma_ex.c ****     __HAL_DMA_CLEAR_FLAG (hdma, __HAL_DMA_GET_HT_FLAG_INDEX(hdma));
 254              		.loc 1 213 0
 255 0064 2368     		ldr	r3, [r4]
 256 0066 AB4A     		ldr	r2, .L528
 257 0068 9342     		cmp	r3, r2
 258 006a 54D9     		bls	.L18
 213:Drivers/STM32F4xx_HAL_Driver/Src/stm32f4xx_hal_dma_ex.c ****     __HAL_DMA_CLEAR_FLAG (hdma, __HAL_DMA_GET_HT_FLAG_INDEX(hdma));
 259              		.loc 1 213 0 is_stmt 0 discriminator 1
 260 006c A2F58962 		sub	r2, r2, #1096
 261 0070 9342     		cmp	r3, r2
 262 0072 4CD0     		beq	.L287
 213:Drivers/STM32F4xx_HAL_Driver/Src/stm32f4xx_hal_dma_ex.c ****     __HAL_DMA_CLEAR_FLAG (hdma, __HAL_DMA_GET_HT_FLAG_INDEX(hdma));
 263              		.loc 1 213 0 discriminator 3
 264 0074 02F58062 		add	r2, r2, #1024
 265 0078 9342     		cmp	r3, r2
 266 007a 46D0     		beq	.L288
 213:Drivers/STM32F4xx_HAL_Driver/Src/stm32f4xx_hal_dma_ex.c ****     __HAL_DMA_CLEAR_FLAG (hdma, __HAL_DMA_GET_HT_FLAG_INDEX(hdma));
 267              		.loc 1 213 0 discriminator 5
 268 007c A2F56872 		sub	r2, r2, #928
 269 0080 9342     		cmp	r3, r2
 270 0082 40D0     		beq	.L289
 213:Drivers/STM32F4xx_HAL_Driver/Src/stm32f4xx_hal_dma_ex.c ****     __HAL_DMA_CLEAR_FLAG (hdma, __HAL_DMA_GET_HT_FLAG_INDEX(hdma));
 271              		.loc 1 213 0 discriminator 7
 272 0084 02F58062 		add	r2, r2, #1024
 273 0088 9342     		cmp	r3, r2
 274 008a 3AD0     		beq	.L290
 213:Drivers/STM32F4xx_HAL_Driver/Src/stm32f4xx_hal_dma_ex.c ****     __HAL_DMA_CLEAR_FLAG (hdma, __HAL_DMA_GET_HT_FLAG_INDEX(hdma));
 275              		.loc 1 213 0 discriminator 9
 276 008c A2F58962 		sub	r2, r2, #1096
ARM GAS  /tmp/ccYYUFl4.s 			page 12


 277 0090 9342     		cmp	r3, r2
 278 0092 33D0     		beq	.L291
 213:Drivers/STM32F4xx_HAL_Driver/Src/stm32f4xx_hal_dma_ex.c ****     __HAL_DMA_CLEAR_FLAG (hdma, __HAL_DMA_GET_HT_FLAG_INDEX(hdma));
 279              		.loc 1 213 0 discriminator 11
 280 0094 02F58062 		add	r2, r2, #1024
 281 0098 9342     		cmp	r3, r2
 282 009a 2CD0     		beq	.L292
 213:Drivers/STM32F4xx_HAL_Driver/Src/stm32f4xx_hal_dma_ex.c ****     __HAL_DMA_CLEAR_FLAG (hdma, __HAL_DMA_GET_HT_FLAG_INDEX(hdma));
 283              		.loc 1 213 0 discriminator 13
 284 009c A2F56872 		sub	r2, r2, #928
 285 00a0 9342     		cmp	r3, r2
 286 00a2 25D0     		beq	.L293
 213:Drivers/STM32F4xx_HAL_Driver/Src/stm32f4xx_hal_dma_ex.c ****     __HAL_DMA_CLEAR_FLAG (hdma, __HAL_DMA_GET_HT_FLAG_INDEX(hdma));
 287              		.loc 1 213 0 discriminator 15
 288 00a4 02F58062 		add	r2, r2, #1024
 289 00a8 9342     		cmp	r3, r2
 290 00aa 1ED0     		beq	.L294
 213:Drivers/STM32F4xx_HAL_Driver/Src/stm32f4xx_hal_dma_ex.c ****     __HAL_DMA_CLEAR_FLAG (hdma, __HAL_DMA_GET_HT_FLAG_INDEX(hdma));
 291              		.loc 1 213 0 discriminator 17
 292 00ac A2F58962 		sub	r2, r2, #1096
 293 00b0 9342     		cmp	r3, r2
 294 00b2 17D0     		beq	.L295
 213:Drivers/STM32F4xx_HAL_Driver/Src/stm32f4xx_hal_dma_ex.c ****     __HAL_DMA_CLEAR_FLAG (hdma, __HAL_DMA_GET_HT_FLAG_INDEX(hdma));
 295              		.loc 1 213 0 discriminator 19
 296 00b4 02F58062 		add	r2, r2, #1024
 297 00b8 9342     		cmp	r3, r2
 298 00ba 10D0     		beq	.L296
 213:Drivers/STM32F4xx_HAL_Driver/Src/stm32f4xx_hal_dma_ex.c ****     __HAL_DMA_CLEAR_FLAG (hdma, __HAL_DMA_GET_HT_FLAG_INDEX(hdma));
 299              		.loc 1 213 0 discriminator 21
 300 00bc A2F56872 		sub	r2, r2, #928
 301 00c0 9342     		cmp	r3, r2
 302 00c2 09D0     		beq	.L297
 213:Drivers/STM32F4xx_HAL_Driver/Src/stm32f4xx_hal_dma_ex.c ****     __HAL_DMA_CLEAR_FLAG (hdma, __HAL_DMA_GET_HT_FLAG_INDEX(hdma));
 303              		.loc 1 213 0 discriminator 23
 304 00c4 02F58062 		add	r2, r2, #1024
 305 00c8 9342     		cmp	r3, r2
 306 00ca 02D1     		bne	.L298
 213:Drivers/STM32F4xx_HAL_Driver/Src/stm32f4xx_hal_dma_ex.c ****     __HAL_DMA_CLEAR_FLAG (hdma, __HAL_DMA_GET_HT_FLAG_INDEX(hdma));
 307              		.loc 1 213 0
 308 00cc 4FF40013 		mov	r3, #2097152
 309 00d0 1EE0     		b	.L19
 310              	.L298:
 311 00d2 4FF00063 		mov	r3, #134217728
 312 00d6 1BE0     		b	.L19
 313              	.L297:
 314 00d8 4FF40013 		mov	r3, #2097152
 315 00dc 18E0     		b	.L19
 316              	.L296:
 317 00de 4FF40013 		mov	r3, #2097152
 318 00e2 15E0     		b	.L19
 319              	.L295:
 320 00e4 4FF40013 		mov	r3, #2097152
 321 00e8 12E0     		b	.L19
 322              	.L294:
 323 00ea 4FF40063 		mov	r3, #2048
 324 00ee 0FE0     		b	.L19
 325              	.L293:
ARM GAS  /tmp/ccYYUFl4.s 			page 13


 326 00f0 4FF40063 		mov	r3, #2048
 327 00f4 0CE0     		b	.L19
 328              	.L292:
 329 00f6 4FF40063 		mov	r3, #2048
 330 00fa 09E0     		b	.L19
 331              	.L291:
 332 00fc 4FF40063 		mov	r3, #2048
 333 0100 06E0     		b	.L19
 334              	.L290:
 335 0102 2023     		movs	r3, #32
 336 0104 04E0     		b	.L19
 337              	.L289:
 338 0106 2023     		movs	r3, #32
 339 0108 02E0     		b	.L19
 340              	.L288:
 341 010a 2023     		movs	r3, #32
 342 010c 00E0     		b	.L19
 343              	.L287:
 344 010e 2023     		movs	r3, #32
 345              	.L19:
 213:Drivers/STM32F4xx_HAL_Driver/Src/stm32f4xx_hal_dma_ex.c ****     __HAL_DMA_CLEAR_FLAG (hdma, __HAL_DMA_GET_HT_FLAG_INDEX(hdma));
 346              		.loc 1 213 0 discriminator 50
 347 0110 814A     		ldr	r2, .L528+4
 348 0112 D360     		str	r3, [r2, #12]
 349 0114 0DE1     		b	.L31
 350              	.L18:
 213:Drivers/STM32F4xx_HAL_Driver/Src/stm32f4xx_hal_dma_ex.c ****     __HAL_DMA_CLEAR_FLAG (hdma, __HAL_DMA_GET_HT_FLAG_INDEX(hdma));
 351              		.loc 1 213 0 discriminator 2
 352 0116 814A     		ldr	r2, .L528+8
 353 0118 9342     		cmp	r3, r2
 354 011a 53D9     		bls	.L32
 213:Drivers/STM32F4xx_HAL_Driver/Src/stm32f4xx_hal_dma_ex.c ****     __HAL_DMA_CLEAR_FLAG (hdma, __HAL_DMA_GET_HT_FLAG_INDEX(hdma));
 355              		.loc 1 213 0 discriminator 51
 356 011c A83A     		subs	r2, r2, #168
 357 011e 9342     		cmp	r3, r2
 358 0120 4CD0     		beq	.L299
 213:Drivers/STM32F4xx_HAL_Driver/Src/stm32f4xx_hal_dma_ex.c ****     __HAL_DMA_CLEAR_FLAG (hdma, __HAL_DMA_GET_HT_FLAG_INDEX(hdma));
 359              		.loc 1 213 0 discriminator 53
 360 0122 02F58062 		add	r2, r2, #1024
 361 0126 9342     		cmp	r3, r2
 362 0128 46D0     		beq	.L300
 213:Drivers/STM32F4xx_HAL_Driver/Src/stm32f4xx_hal_dma_ex.c ****     __HAL_DMA_CLEAR_FLAG (hdma, __HAL_DMA_GET_HT_FLAG_INDEX(hdma));
 363              		.loc 1 213 0 discriminator 55
 364 012a A2F56872 		sub	r2, r2, #928
 365 012e 9342     		cmp	r3, r2
 366 0130 40D0     		beq	.L301
 213:Drivers/STM32F4xx_HAL_Driver/Src/stm32f4xx_hal_dma_ex.c ****     __HAL_DMA_CLEAR_FLAG (hdma, __HAL_DMA_GET_HT_FLAG_INDEX(hdma));
 367              		.loc 1 213 0 discriminator 57
 368 0132 02F58062 		add	r2, r2, #1024
 369 0136 9342     		cmp	r3, r2
 370 0138 3AD0     		beq	.L302
 213:Drivers/STM32F4xx_HAL_Driver/Src/stm32f4xx_hal_dma_ex.c ****     __HAL_DMA_CLEAR_FLAG (hdma, __HAL_DMA_GET_HT_FLAG_INDEX(hdma));
 371              		.loc 1 213 0 discriminator 59
 372 013a A2F58962 		sub	r2, r2, #1096
 373 013e 9342     		cmp	r3, r2
 374 0140 33D0     		beq	.L303
 213:Drivers/STM32F4xx_HAL_Driver/Src/stm32f4xx_hal_dma_ex.c ****     __HAL_DMA_CLEAR_FLAG (hdma, __HAL_DMA_GET_HT_FLAG_INDEX(hdma));
ARM GAS  /tmp/ccYYUFl4.s 			page 14


 375              		.loc 1 213 0 discriminator 61
 376 0142 02F58062 		add	r2, r2, #1024
 377 0146 9342     		cmp	r3, r2
 378 0148 2CD0     		beq	.L304
 213:Drivers/STM32F4xx_HAL_Driver/Src/stm32f4xx_hal_dma_ex.c ****     __HAL_DMA_CLEAR_FLAG (hdma, __HAL_DMA_GET_HT_FLAG_INDEX(hdma));
 379              		.loc 1 213 0 discriminator 63
 380 014a A2F56872 		sub	r2, r2, #928
 381 014e 9342     		cmp	r3, r2
 382 0150 25D0     		beq	.L305
 213:Drivers/STM32F4xx_HAL_Driver/Src/stm32f4xx_hal_dma_ex.c ****     __HAL_DMA_CLEAR_FLAG (hdma, __HAL_DMA_GET_HT_FLAG_INDEX(hdma));
 383              		.loc 1 213 0 discriminator 65
 384 0152 02F58062 		add	r2, r2, #1024
 385 0156 9342     		cmp	r3, r2
 386 0158 1ED0     		beq	.L306
 213:Drivers/STM32F4xx_HAL_Driver/Src/stm32f4xx_hal_dma_ex.c ****     __HAL_DMA_CLEAR_FLAG (hdma, __HAL_DMA_GET_HT_FLAG_INDEX(hdma));
 387              		.loc 1 213 0 discriminator 67
 388 015a A2F58962 		sub	r2, r2, #1096
 389 015e 9342     		cmp	r3, r2
 390 0160 17D0     		beq	.L307
 213:Drivers/STM32F4xx_HAL_Driver/Src/stm32f4xx_hal_dma_ex.c ****     __HAL_DMA_CLEAR_FLAG (hdma, __HAL_DMA_GET_HT_FLAG_INDEX(hdma));
 391              		.loc 1 213 0 discriminator 69
 392 0162 02F58062 		add	r2, r2, #1024
 393 0166 9342     		cmp	r3, r2
 394 0168 10D0     		beq	.L308
 213:Drivers/STM32F4xx_HAL_Driver/Src/stm32f4xx_hal_dma_ex.c ****     __HAL_DMA_CLEAR_FLAG (hdma, __HAL_DMA_GET_HT_FLAG_INDEX(hdma));
 395              		.loc 1 213 0 discriminator 71
 396 016a A2F56872 		sub	r2, r2, #928
 397 016e 9342     		cmp	r3, r2
 398 0170 09D0     		beq	.L309
 213:Drivers/STM32F4xx_HAL_Driver/Src/stm32f4xx_hal_dma_ex.c ****     __HAL_DMA_CLEAR_FLAG (hdma, __HAL_DMA_GET_HT_FLAG_INDEX(hdma));
 399              		.loc 1 213 0 discriminator 73
 400 0172 02F58062 		add	r2, r2, #1024
 401 0176 9342     		cmp	r3, r2
 402 0178 02D1     		bne	.L310
 213:Drivers/STM32F4xx_HAL_Driver/Src/stm32f4xx_hal_dma_ex.c ****     __HAL_DMA_CLEAR_FLAG (hdma, __HAL_DMA_GET_HT_FLAG_INDEX(hdma));
 403              		.loc 1 213 0
 404 017a 4FF40013 		mov	r3, #2097152
 405 017e 1EE0     		b	.L33
 406              	.L310:
 407 0180 4FF00063 		mov	r3, #134217728
 408 0184 1BE0     		b	.L33
 409              	.L309:
 410 0186 4FF40013 		mov	r3, #2097152
 411 018a 18E0     		b	.L33
 412              	.L308:
 413 018c 4FF40013 		mov	r3, #2097152
 414 0190 15E0     		b	.L33
 415              	.L307:
 416 0192 4FF40013 		mov	r3, #2097152
 417 0196 12E0     		b	.L33
 418              	.L306:
 419 0198 4FF40063 		mov	r3, #2048
 420 019c 0FE0     		b	.L33
 421              	.L305:
 422 019e 4FF40063 		mov	r3, #2048
 423 01a2 0CE0     		b	.L33
 424              	.L304:
ARM GAS  /tmp/ccYYUFl4.s 			page 15


 425 01a4 4FF40063 		mov	r3, #2048
 426 01a8 09E0     		b	.L33
 427              	.L303:
 428 01aa 4FF40063 		mov	r3, #2048
 429 01ae 06E0     		b	.L33
 430              	.L302:
 431 01b0 2023     		movs	r3, #32
 432 01b2 04E0     		b	.L33
 433              	.L301:
 434 01b4 2023     		movs	r3, #32
 435 01b6 02E0     		b	.L33
 436              	.L300:
 437 01b8 2023     		movs	r3, #32
 438 01ba 00E0     		b	.L33
 439              	.L299:
 440 01bc 2023     		movs	r3, #32
 441              	.L33:
 213:Drivers/STM32F4xx_HAL_Driver/Src/stm32f4xx_hal_dma_ex.c ****     __HAL_DMA_CLEAR_FLAG (hdma, __HAL_DMA_GET_HT_FLAG_INDEX(hdma));
 442              		.loc 1 213 0 discriminator 100
 443 01be 564A     		ldr	r2, .L528+4
 444 01c0 9360     		str	r3, [r2, #8]
 445 01c2 B6E0     		b	.L31
 446              	.L32:
 213:Drivers/STM32F4xx_HAL_Driver/Src/stm32f4xx_hal_dma_ex.c ****     __HAL_DMA_CLEAR_FLAG (hdma, __HAL_DMA_GET_HT_FLAG_INDEX(hdma));
 447              		.loc 1 213 0 discriminator 52
 448 01c4 564A     		ldr	r2, .L528+12
 449 01c6 9342     		cmp	r3, r2
 450 01c8 53D9     		bls	.L45
 213:Drivers/STM32F4xx_HAL_Driver/Src/stm32f4xx_hal_dma_ex.c ****     __HAL_DMA_CLEAR_FLAG (hdma, __HAL_DMA_GET_HT_FLAG_INDEX(hdma));
 451              		.loc 1 213 0 discriminator 102
 452 01ca 483A     		subs	r2, r2, #72
 453 01cc 9342     		cmp	r3, r2
 454 01ce 4CD0     		beq	.L311
 213:Drivers/STM32F4xx_HAL_Driver/Src/stm32f4xx_hal_dma_ex.c ****     __HAL_DMA_CLEAR_FLAG (hdma, __HAL_DMA_GET_HT_FLAG_INDEX(hdma));
 455              		.loc 1 213 0 discriminator 104
 456 01d0 02F58062 		add	r2, r2, #1024
 457 01d4 9342     		cmp	r3, r2
 458 01d6 46D0     		beq	.L312
 213:Drivers/STM32F4xx_HAL_Driver/Src/stm32f4xx_hal_dma_ex.c ****     __HAL_DMA_CLEAR_FLAG (hdma, __HAL_DMA_GET_HT_FLAG_INDEX(hdma));
 459              		.loc 1 213 0 discriminator 106
 460 01d8 A2F56872 		sub	r2, r2, #928
 461 01dc 9342     		cmp	r3, r2
 462 01de 40D0     		beq	.L313
 213:Drivers/STM32F4xx_HAL_Driver/Src/stm32f4xx_hal_dma_ex.c ****     __HAL_DMA_CLEAR_FLAG (hdma, __HAL_DMA_GET_HT_FLAG_INDEX(hdma));
 463              		.loc 1 213 0 discriminator 108
 464 01e0 02F58062 		add	r2, r2, #1024
 465 01e4 9342     		cmp	r3, r2
 466 01e6 3AD0     		beq	.L314
 213:Drivers/STM32F4xx_HAL_Driver/Src/stm32f4xx_hal_dma_ex.c ****     __HAL_DMA_CLEAR_FLAG (hdma, __HAL_DMA_GET_HT_FLAG_INDEX(hdma));
 467              		.loc 1 213 0 discriminator 110
 468 01e8 A2F58962 		sub	r2, r2, #1096
 469 01ec 9342     		cmp	r3, r2
 470 01ee 33D0     		beq	.L315
 213:Drivers/STM32F4xx_HAL_Driver/Src/stm32f4xx_hal_dma_ex.c ****     __HAL_DMA_CLEAR_FLAG (hdma, __HAL_DMA_GET_HT_FLAG_INDEX(hdma));
 471              		.loc 1 213 0 discriminator 112
 472 01f0 02F58062 		add	r2, r2, #1024
 473 01f4 9342     		cmp	r3, r2
ARM GAS  /tmp/ccYYUFl4.s 			page 16


 474 01f6 2CD0     		beq	.L316
 213:Drivers/STM32F4xx_HAL_Driver/Src/stm32f4xx_hal_dma_ex.c ****     __HAL_DMA_CLEAR_FLAG (hdma, __HAL_DMA_GET_HT_FLAG_INDEX(hdma));
 475              		.loc 1 213 0 discriminator 114
 476 01f8 A2F56872 		sub	r2, r2, #928
 477 01fc 9342     		cmp	r3, r2
 478 01fe 25D0     		beq	.L317
 213:Drivers/STM32F4xx_HAL_Driver/Src/stm32f4xx_hal_dma_ex.c ****     __HAL_DMA_CLEAR_FLAG (hdma, __HAL_DMA_GET_HT_FLAG_INDEX(hdma));
 479              		.loc 1 213 0 discriminator 116
 480 0200 02F58062 		add	r2, r2, #1024
 481 0204 9342     		cmp	r3, r2
 482 0206 1ED0     		beq	.L318
 213:Drivers/STM32F4xx_HAL_Driver/Src/stm32f4xx_hal_dma_ex.c ****     __HAL_DMA_CLEAR_FLAG (hdma, __HAL_DMA_GET_HT_FLAG_INDEX(hdma));
 483              		.loc 1 213 0 discriminator 118
 484 0208 A2F58962 		sub	r2, r2, #1096
 485 020c 9342     		cmp	r3, r2
 486 020e 17D0     		beq	.L319
 213:Drivers/STM32F4xx_HAL_Driver/Src/stm32f4xx_hal_dma_ex.c ****     __HAL_DMA_CLEAR_FLAG (hdma, __HAL_DMA_GET_HT_FLAG_INDEX(hdma));
 487              		.loc 1 213 0 discriminator 120
 488 0210 02F58062 		add	r2, r2, #1024
 489 0214 9342     		cmp	r3, r2
 490 0216 10D0     		beq	.L320
 213:Drivers/STM32F4xx_HAL_Driver/Src/stm32f4xx_hal_dma_ex.c ****     __HAL_DMA_CLEAR_FLAG (hdma, __HAL_DMA_GET_HT_FLAG_INDEX(hdma));
 491              		.loc 1 213 0 discriminator 122
 492 0218 A2F56872 		sub	r2, r2, #928
 493 021c 9342     		cmp	r3, r2
 494 021e 09D0     		beq	.L321
 213:Drivers/STM32F4xx_HAL_Driver/Src/stm32f4xx_hal_dma_ex.c ****     __HAL_DMA_CLEAR_FLAG (hdma, __HAL_DMA_GET_HT_FLAG_INDEX(hdma));
 495              		.loc 1 213 0 discriminator 124
 496 0220 02F58062 		add	r2, r2, #1024
 497 0224 9342     		cmp	r3, r2
 498 0226 02D1     		bne	.L322
 213:Drivers/STM32F4xx_HAL_Driver/Src/stm32f4xx_hal_dma_ex.c ****     __HAL_DMA_CLEAR_FLAG (hdma, __HAL_DMA_GET_HT_FLAG_INDEX(hdma));
 499              		.loc 1 213 0
 500 0228 4FF40013 		mov	r3, #2097152
 501 022c 1EE0     		b	.L46
 502              	.L322:
 503 022e 4FF00063 		mov	r3, #134217728
 504 0232 1BE0     		b	.L46
 505              	.L321:
 506 0234 4FF40013 		mov	r3, #2097152
 507 0238 18E0     		b	.L46
 508              	.L320:
 509 023a 4FF40013 		mov	r3, #2097152
 510 023e 15E0     		b	.L46
 511              	.L319:
 512 0240 4FF40013 		mov	r3, #2097152
 513 0244 12E0     		b	.L46
 514              	.L318:
 515 0246 4FF40063 		mov	r3, #2048
 516 024a 0FE0     		b	.L46
 517              	.L317:
 518 024c 4FF40063 		mov	r3, #2048
 519 0250 0CE0     		b	.L46
 520              	.L316:
 521 0252 4FF40063 		mov	r3, #2048
 522 0256 09E0     		b	.L46
 523              	.L315:
ARM GAS  /tmp/ccYYUFl4.s 			page 17


 524 0258 4FF40063 		mov	r3, #2048
 525 025c 06E0     		b	.L46
 526              	.L314:
 527 025e 2023     		movs	r3, #32
 528 0260 04E0     		b	.L46
 529              	.L313:
 530 0262 2023     		movs	r3, #32
 531 0264 02E0     		b	.L46
 532              	.L312:
 533 0266 2023     		movs	r3, #32
 534 0268 00E0     		b	.L46
 535              	.L311:
 536 026a 2023     		movs	r3, #32
 537              	.L46:
 213:Drivers/STM32F4xx_HAL_Driver/Src/stm32f4xx_hal_dma_ex.c ****     __HAL_DMA_CLEAR_FLAG (hdma, __HAL_DMA_GET_HT_FLAG_INDEX(hdma));
 538              		.loc 1 213 0 discriminator 151
 539 026c 2D4A     		ldr	r2, .L528+16
 540 026e D360     		str	r3, [r2, #12]
 541 0270 5FE0     		b	.L31
 542              	.L45:
 213:Drivers/STM32F4xx_HAL_Driver/Src/stm32f4xx_hal_dma_ex.c ****     __HAL_DMA_CLEAR_FLAG (hdma, __HAL_DMA_GET_HT_FLAG_INDEX(hdma));
 543              		.loc 1 213 0 discriminator 103
 544 0272 2D4A     		ldr	r2, .L528+20
 545 0274 9342     		cmp	r3, r2
 546 0276 59D0     		beq	.L323
 213:Drivers/STM32F4xx_HAL_Driver/Src/stm32f4xx_hal_dma_ex.c ****     __HAL_DMA_CLEAR_FLAG (hdma, __HAL_DMA_GET_HT_FLAG_INDEX(hdma));
 547              		.loc 1 213 0 discriminator 153
 548 0278 02F58062 		add	r2, r2, #1024
 549 027c 9342     		cmp	r3, r2
 550 027e 46D0     		beq	.L324
 213:Drivers/STM32F4xx_HAL_Driver/Src/stm32f4xx_hal_dma_ex.c ****     __HAL_DMA_CLEAR_FLAG (hdma, __HAL_DMA_GET_HT_FLAG_INDEX(hdma));
 551              		.loc 1 213 0 discriminator 155
 552 0280 A2F56872 		sub	r2, r2, #928
 553 0284 9342     		cmp	r3, r2
 554 0286 40D0     		beq	.L325
 213:Drivers/STM32F4xx_HAL_Driver/Src/stm32f4xx_hal_dma_ex.c ****     __HAL_DMA_CLEAR_FLAG (hdma, __HAL_DMA_GET_HT_FLAG_INDEX(hdma));
 555              		.loc 1 213 0 discriminator 157
 556 0288 02F58062 		add	r2, r2, #1024
 557 028c 9342     		cmp	r3, r2
 558 028e 3AD0     		beq	.L326
 213:Drivers/STM32F4xx_HAL_Driver/Src/stm32f4xx_hal_dma_ex.c ****     __HAL_DMA_CLEAR_FLAG (hdma, __HAL_DMA_GET_HT_FLAG_INDEX(hdma));
 559              		.loc 1 213 0 discriminator 159
 560 0290 A2F58962 		sub	r2, r2, #1096
 561 0294 9342     		cmp	r3, r2
 562 0296 33D0     		beq	.L327
 213:Drivers/STM32F4xx_HAL_Driver/Src/stm32f4xx_hal_dma_ex.c ****     __HAL_DMA_CLEAR_FLAG (hdma, __HAL_DMA_GET_HT_FLAG_INDEX(hdma));
 563              		.loc 1 213 0 discriminator 161
 564 0298 02F58062 		add	r2, r2, #1024
 565 029c 9342     		cmp	r3, r2
 566 029e 2CD0     		beq	.L328
 213:Drivers/STM32F4xx_HAL_Driver/Src/stm32f4xx_hal_dma_ex.c ****     __HAL_DMA_CLEAR_FLAG (hdma, __HAL_DMA_GET_HT_FLAG_INDEX(hdma));
 567              		.loc 1 213 0 discriminator 163
 568 02a0 A2F56872 		sub	r2, r2, #928
 569 02a4 9342     		cmp	r3, r2
 570 02a6 25D0     		beq	.L329
 213:Drivers/STM32F4xx_HAL_Driver/Src/stm32f4xx_hal_dma_ex.c ****     __HAL_DMA_CLEAR_FLAG (hdma, __HAL_DMA_GET_HT_FLAG_INDEX(hdma));
 571              		.loc 1 213 0 discriminator 165
ARM GAS  /tmp/ccYYUFl4.s 			page 18


 572 02a8 02F58062 		add	r2, r2, #1024
 573 02ac 9342     		cmp	r3, r2
 574 02ae 1ED0     		beq	.L330
 213:Drivers/STM32F4xx_HAL_Driver/Src/stm32f4xx_hal_dma_ex.c ****     __HAL_DMA_CLEAR_FLAG (hdma, __HAL_DMA_GET_HT_FLAG_INDEX(hdma));
 575              		.loc 1 213 0 discriminator 167
 576 02b0 A2F58962 		sub	r2, r2, #1096
 577 02b4 9342     		cmp	r3, r2
 578 02b6 17D0     		beq	.L331
 213:Drivers/STM32F4xx_HAL_Driver/Src/stm32f4xx_hal_dma_ex.c ****     __HAL_DMA_CLEAR_FLAG (hdma, __HAL_DMA_GET_HT_FLAG_INDEX(hdma));
 579              		.loc 1 213 0 discriminator 169
 580 02b8 02F58062 		add	r2, r2, #1024
 581 02bc 9342     		cmp	r3, r2
 582 02be 10D0     		beq	.L332
 213:Drivers/STM32F4xx_HAL_Driver/Src/stm32f4xx_hal_dma_ex.c ****     __HAL_DMA_CLEAR_FLAG (hdma, __HAL_DMA_GET_HT_FLAG_INDEX(hdma));
 583              		.loc 1 213 0 discriminator 171
 584 02c0 A2F56872 		sub	r2, r2, #928
 585 02c4 9342     		cmp	r3, r2
 586 02c6 09D0     		beq	.L333
 213:Drivers/STM32F4xx_HAL_Driver/Src/stm32f4xx_hal_dma_ex.c ****     __HAL_DMA_CLEAR_FLAG (hdma, __HAL_DMA_GET_HT_FLAG_INDEX(hdma));
 587              		.loc 1 213 0 discriminator 173
 588 02c8 02F58062 		add	r2, r2, #1024
 589 02cc 9342     		cmp	r3, r2
 590 02ce 02D1     		bne	.L334
 213:Drivers/STM32F4xx_HAL_Driver/Src/stm32f4xx_hal_dma_ex.c ****     __HAL_DMA_CLEAR_FLAG (hdma, __HAL_DMA_GET_HT_FLAG_INDEX(hdma));
 591              		.loc 1 213 0
 592 02d0 4FF40013 		mov	r3, #2097152
 593 02d4 2BE0     		b	.L59
 594              	.L334:
 595 02d6 4FF00063 		mov	r3, #134217728
 596 02da 28E0     		b	.L59
 597              	.L333:
 598 02dc 4FF40013 		mov	r3, #2097152
 599 02e0 25E0     		b	.L59
 600              	.L332:
 601 02e2 4FF40013 		mov	r3, #2097152
 602 02e6 22E0     		b	.L59
 603              	.L331:
 604 02e8 4FF40013 		mov	r3, #2097152
 605 02ec 1FE0     		b	.L59
 606              	.L330:
 607 02ee 4FF40063 		mov	r3, #2048
 608 02f2 1CE0     		b	.L59
 609              	.L329:
 610 02f4 4FF40063 		mov	r3, #2048
 611 02f8 19E0     		b	.L59
 612              	.L328:
 613 02fa 4FF40063 		mov	r3, #2048
 614 02fe 16E0     		b	.L59
 615              	.L327:
 616 0300 4FF40063 		mov	r3, #2048
 617 0304 13E0     		b	.L59
 618              	.L326:
 619 0306 2023     		movs	r3, #32
 620 0308 11E0     		b	.L59
 621              	.L325:
 622 030a 2023     		movs	r3, #32
 623 030c 0FE0     		b	.L59
ARM GAS  /tmp/ccYYUFl4.s 			page 19


 624              	.L324:
 625 030e 2023     		movs	r3, #32
 626 0310 0DE0     		b	.L59
 627              	.L529:
 628 0312 00BF     		.align	2
 629              	.L528:
 630 0314 58640240 		.word	1073898584
 631 0318 00640240 		.word	1073898496
 632 031c B8600240 		.word	1073897656
 633 0320 58600240 		.word	1073897560
 634 0324 00600240 		.word	1073897472
 635 0328 10600240 		.word	1073897488
 636              	.L323:
 637 032c 2023     		movs	r3, #32
 638              	.L59:
 213:Drivers/STM32F4xx_HAL_Driver/Src/stm32f4xx_hal_dma_ex.c ****     __HAL_DMA_CLEAR_FLAG (hdma, __HAL_DMA_GET_HT_FLAG_INDEX(hdma));
 639              		.loc 1 213 0 discriminator 200
 640 032e AC4A     		ldr	r2, .L530
 641 0330 9360     		str	r3, [r2, #8]
 642              	.L31:
 214:Drivers/STM32F4xx_HAL_Driver/Src/stm32f4xx_hal_dma_ex.c ****     __HAL_DMA_CLEAR_FLAG (hdma, __HAL_DMA_GET_TE_FLAG_INDEX(hdma));
 643              		.loc 1 214 0 is_stmt 1
 644 0332 2368     		ldr	r3, [r4]
 645 0334 AB4A     		ldr	r2, .L530+4
 646 0336 9342     		cmp	r3, r2
 647 0338 54D9     		bls	.L71
 214:Drivers/STM32F4xx_HAL_Driver/Src/stm32f4xx_hal_dma_ex.c ****     __HAL_DMA_CLEAR_FLAG (hdma, __HAL_DMA_GET_TE_FLAG_INDEX(hdma));
 648              		.loc 1 214 0 is_stmt 0 discriminator 1
 649 033a A2F58962 		sub	r2, r2, #1096
 650 033e 9342     		cmp	r3, r2
 651 0340 4CD0     		beq	.L335
 214:Drivers/STM32F4xx_HAL_Driver/Src/stm32f4xx_hal_dma_ex.c ****     __HAL_DMA_CLEAR_FLAG (hdma, __HAL_DMA_GET_TE_FLAG_INDEX(hdma));
 652              		.loc 1 214 0 discriminator 3
 653 0342 02F58062 		add	r2, r2, #1024
 654 0346 9342     		cmp	r3, r2
 655 0348 46D0     		beq	.L336
 214:Drivers/STM32F4xx_HAL_Driver/Src/stm32f4xx_hal_dma_ex.c ****     __HAL_DMA_CLEAR_FLAG (hdma, __HAL_DMA_GET_TE_FLAG_INDEX(hdma));
 656              		.loc 1 214 0 discriminator 5
 657 034a A2F56872 		sub	r2, r2, #928
 658 034e 9342     		cmp	r3, r2
 659 0350 40D0     		beq	.L337
 214:Drivers/STM32F4xx_HAL_Driver/Src/stm32f4xx_hal_dma_ex.c ****     __HAL_DMA_CLEAR_FLAG (hdma, __HAL_DMA_GET_TE_FLAG_INDEX(hdma));
 660              		.loc 1 214 0 discriminator 7
 661 0352 02F58062 		add	r2, r2, #1024
 662 0356 9342     		cmp	r3, r2
 663 0358 3AD0     		beq	.L338
 214:Drivers/STM32F4xx_HAL_Driver/Src/stm32f4xx_hal_dma_ex.c ****     __HAL_DMA_CLEAR_FLAG (hdma, __HAL_DMA_GET_TE_FLAG_INDEX(hdma));
 664              		.loc 1 214 0 discriminator 9
 665 035a A2F58962 		sub	r2, r2, #1096
 666 035e 9342     		cmp	r3, r2
 667 0360 33D0     		beq	.L339
 214:Drivers/STM32F4xx_HAL_Driver/Src/stm32f4xx_hal_dma_ex.c ****     __HAL_DMA_CLEAR_FLAG (hdma, __HAL_DMA_GET_TE_FLAG_INDEX(hdma));
 668              		.loc 1 214 0 discriminator 11
 669 0362 02F58062 		add	r2, r2, #1024
 670 0366 9342     		cmp	r3, r2
 671 0368 2CD0     		beq	.L340
 214:Drivers/STM32F4xx_HAL_Driver/Src/stm32f4xx_hal_dma_ex.c ****     __HAL_DMA_CLEAR_FLAG (hdma, __HAL_DMA_GET_TE_FLAG_INDEX(hdma));
ARM GAS  /tmp/ccYYUFl4.s 			page 20


 672              		.loc 1 214 0 discriminator 13
 673 036a A2F56872 		sub	r2, r2, #928
 674 036e 9342     		cmp	r3, r2
 675 0370 25D0     		beq	.L341
 214:Drivers/STM32F4xx_HAL_Driver/Src/stm32f4xx_hal_dma_ex.c ****     __HAL_DMA_CLEAR_FLAG (hdma, __HAL_DMA_GET_TE_FLAG_INDEX(hdma));
 676              		.loc 1 214 0 discriminator 15
 677 0372 02F58062 		add	r2, r2, #1024
 678 0376 9342     		cmp	r3, r2
 679 0378 1ED0     		beq	.L342
 214:Drivers/STM32F4xx_HAL_Driver/Src/stm32f4xx_hal_dma_ex.c ****     __HAL_DMA_CLEAR_FLAG (hdma, __HAL_DMA_GET_TE_FLAG_INDEX(hdma));
 680              		.loc 1 214 0 discriminator 17
 681 037a A2F58962 		sub	r2, r2, #1096
 682 037e 9342     		cmp	r3, r2
 683 0380 17D0     		beq	.L343
 214:Drivers/STM32F4xx_HAL_Driver/Src/stm32f4xx_hal_dma_ex.c ****     __HAL_DMA_CLEAR_FLAG (hdma, __HAL_DMA_GET_TE_FLAG_INDEX(hdma));
 684              		.loc 1 214 0 discriminator 19
 685 0382 02F58062 		add	r2, r2, #1024
 686 0386 9342     		cmp	r3, r2
 687 0388 10D0     		beq	.L344
 214:Drivers/STM32F4xx_HAL_Driver/Src/stm32f4xx_hal_dma_ex.c ****     __HAL_DMA_CLEAR_FLAG (hdma, __HAL_DMA_GET_TE_FLAG_INDEX(hdma));
 688              		.loc 1 214 0 discriminator 21
 689 038a A2F56872 		sub	r2, r2, #928
 690 038e 9342     		cmp	r3, r2
 691 0390 09D0     		beq	.L345
 214:Drivers/STM32F4xx_HAL_Driver/Src/stm32f4xx_hal_dma_ex.c ****     __HAL_DMA_CLEAR_FLAG (hdma, __HAL_DMA_GET_TE_FLAG_INDEX(hdma));
 692              		.loc 1 214 0 discriminator 23
 693 0392 02F58062 		add	r2, r2, #1024
 694 0396 9342     		cmp	r3, r2
 695 0398 02D1     		bne	.L346
 214:Drivers/STM32F4xx_HAL_Driver/Src/stm32f4xx_hal_dma_ex.c ****     __HAL_DMA_CLEAR_FLAG (hdma, __HAL_DMA_GET_TE_FLAG_INDEX(hdma));
 696              		.loc 1 214 0
 697 039a 4FF48013 		mov	r3, #1048576
 698 039e 1EE0     		b	.L72
 699              	.L346:
 700 03a0 4FF08063 		mov	r3, #67108864
 701 03a4 1BE0     		b	.L72
 702              	.L345:
 703 03a6 4FF48013 		mov	r3, #1048576
 704 03aa 18E0     		b	.L72
 705              	.L344:
 706 03ac 4FF48013 		mov	r3, #1048576
 707 03b0 15E0     		b	.L72
 708              	.L343:
 709 03b2 4FF48013 		mov	r3, #1048576
 710 03b6 12E0     		b	.L72
 711              	.L342:
 712 03b8 4FF48063 		mov	r3, #1024
 713 03bc 0FE0     		b	.L72
 714              	.L341:
 715 03be 4FF48063 		mov	r3, #1024
 716 03c2 0CE0     		b	.L72
 717              	.L340:
 718 03c4 4FF48063 		mov	r3, #1024
 719 03c8 09E0     		b	.L72
 720              	.L339:
 721 03ca 4FF48063 		mov	r3, #1024
 722 03ce 06E0     		b	.L72
ARM GAS  /tmp/ccYYUFl4.s 			page 21


 723              	.L338:
 724 03d0 1023     		movs	r3, #16
 725 03d2 04E0     		b	.L72
 726              	.L337:
 727 03d4 1023     		movs	r3, #16
 728 03d6 02E0     		b	.L72
 729              	.L336:
 730 03d8 1023     		movs	r3, #16
 731 03da 00E0     		b	.L72
 732              	.L335:
 733 03dc 1023     		movs	r3, #16
 734              	.L72:
 214:Drivers/STM32F4xx_HAL_Driver/Src/stm32f4xx_hal_dma_ex.c ****     __HAL_DMA_CLEAR_FLAG (hdma, __HAL_DMA_GET_TE_FLAG_INDEX(hdma));
 735              		.loc 1 214 0 discriminator 50
 736 03de 824A     		ldr	r2, .L530+8
 737 03e0 D360     		str	r3, [r2, #12]
 738 03e2 0CE1     		b	.L84
 739              	.L71:
 214:Drivers/STM32F4xx_HAL_Driver/Src/stm32f4xx_hal_dma_ex.c ****     __HAL_DMA_CLEAR_FLAG (hdma, __HAL_DMA_GET_TE_FLAG_INDEX(hdma));
 740              		.loc 1 214 0 discriminator 2
 741 03e4 814A     		ldr	r2, .L530+12
 742 03e6 9342     		cmp	r3, r2
 743 03e8 53D9     		bls	.L85
 214:Drivers/STM32F4xx_HAL_Driver/Src/stm32f4xx_hal_dma_ex.c ****     __HAL_DMA_CLEAR_FLAG (hdma, __HAL_DMA_GET_TE_FLAG_INDEX(hdma));
 744              		.loc 1 214 0 discriminator 51
 745 03ea A83A     		subs	r2, r2, #168
 746 03ec 9342     		cmp	r3, r2
 747 03ee 4CD0     		beq	.L347
 214:Drivers/STM32F4xx_HAL_Driver/Src/stm32f4xx_hal_dma_ex.c ****     __HAL_DMA_CLEAR_FLAG (hdma, __HAL_DMA_GET_TE_FLAG_INDEX(hdma));
 748              		.loc 1 214 0 discriminator 53
 749 03f0 02F58062 		add	r2, r2, #1024
 750 03f4 9342     		cmp	r3, r2
 751 03f6 46D0     		beq	.L348
 214:Drivers/STM32F4xx_HAL_Driver/Src/stm32f4xx_hal_dma_ex.c ****     __HAL_DMA_CLEAR_FLAG (hdma, __HAL_DMA_GET_TE_FLAG_INDEX(hdma));
 752              		.loc 1 214 0 discriminator 55
 753 03f8 A2F56872 		sub	r2, r2, #928
 754 03fc 9342     		cmp	r3, r2
 755 03fe 40D0     		beq	.L349
 214:Drivers/STM32F4xx_HAL_Driver/Src/stm32f4xx_hal_dma_ex.c ****     __HAL_DMA_CLEAR_FLAG (hdma, __HAL_DMA_GET_TE_FLAG_INDEX(hdma));
 756              		.loc 1 214 0 discriminator 57
 757 0400 02F58062 		add	r2, r2, #1024
 758 0404 9342     		cmp	r3, r2
 759 0406 3AD0     		beq	.L350
 214:Drivers/STM32F4xx_HAL_Driver/Src/stm32f4xx_hal_dma_ex.c ****     __HAL_DMA_CLEAR_FLAG (hdma, __HAL_DMA_GET_TE_FLAG_INDEX(hdma));
 760              		.loc 1 214 0 discriminator 59
 761 0408 A2F58962 		sub	r2, r2, #1096
 762 040c 9342     		cmp	r3, r2
 763 040e 33D0     		beq	.L351
 214:Drivers/STM32F4xx_HAL_Driver/Src/stm32f4xx_hal_dma_ex.c ****     __HAL_DMA_CLEAR_FLAG (hdma, __HAL_DMA_GET_TE_FLAG_INDEX(hdma));
 764              		.loc 1 214 0 discriminator 61
 765 0410 02F58062 		add	r2, r2, #1024
 766 0414 9342     		cmp	r3, r2
 767 0416 2CD0     		beq	.L352
 214:Drivers/STM32F4xx_HAL_Driver/Src/stm32f4xx_hal_dma_ex.c ****     __HAL_DMA_CLEAR_FLAG (hdma, __HAL_DMA_GET_TE_FLAG_INDEX(hdma));
 768              		.loc 1 214 0 discriminator 63
 769 0418 A2F56872 		sub	r2, r2, #928
 770 041c 9342     		cmp	r3, r2
ARM GAS  /tmp/ccYYUFl4.s 			page 22


 771 041e 25D0     		beq	.L353
 214:Drivers/STM32F4xx_HAL_Driver/Src/stm32f4xx_hal_dma_ex.c ****     __HAL_DMA_CLEAR_FLAG (hdma, __HAL_DMA_GET_TE_FLAG_INDEX(hdma));
 772              		.loc 1 214 0 discriminator 65
 773 0420 02F58062 		add	r2, r2, #1024
 774 0424 9342     		cmp	r3, r2
 775 0426 1ED0     		beq	.L354
 214:Drivers/STM32F4xx_HAL_Driver/Src/stm32f4xx_hal_dma_ex.c ****     __HAL_DMA_CLEAR_FLAG (hdma, __HAL_DMA_GET_TE_FLAG_INDEX(hdma));
 776              		.loc 1 214 0 discriminator 67
 777 0428 A2F58962 		sub	r2, r2, #1096
 778 042c 9342     		cmp	r3, r2
 779 042e 17D0     		beq	.L355
 214:Drivers/STM32F4xx_HAL_Driver/Src/stm32f4xx_hal_dma_ex.c ****     __HAL_DMA_CLEAR_FLAG (hdma, __HAL_DMA_GET_TE_FLAG_INDEX(hdma));
 780              		.loc 1 214 0 discriminator 69
 781 0430 02F58062 		add	r2, r2, #1024
 782 0434 9342     		cmp	r3, r2
 783 0436 10D0     		beq	.L356
 214:Drivers/STM32F4xx_HAL_Driver/Src/stm32f4xx_hal_dma_ex.c ****     __HAL_DMA_CLEAR_FLAG (hdma, __HAL_DMA_GET_TE_FLAG_INDEX(hdma));
 784              		.loc 1 214 0 discriminator 71
 785 0438 A2F56872 		sub	r2, r2, #928
 786 043c 9342     		cmp	r3, r2
 787 043e 09D0     		beq	.L357
 214:Drivers/STM32F4xx_HAL_Driver/Src/stm32f4xx_hal_dma_ex.c ****     __HAL_DMA_CLEAR_FLAG (hdma, __HAL_DMA_GET_TE_FLAG_INDEX(hdma));
 788              		.loc 1 214 0 discriminator 73
 789 0440 02F58062 		add	r2, r2, #1024
 790 0444 9342     		cmp	r3, r2
 791 0446 02D1     		bne	.L358
 214:Drivers/STM32F4xx_HAL_Driver/Src/stm32f4xx_hal_dma_ex.c ****     __HAL_DMA_CLEAR_FLAG (hdma, __HAL_DMA_GET_TE_FLAG_INDEX(hdma));
 792              		.loc 1 214 0
 793 0448 4FF48013 		mov	r3, #1048576
 794 044c 1EE0     		b	.L86
 795              	.L358:
 796 044e 4FF08063 		mov	r3, #67108864
 797 0452 1BE0     		b	.L86
 798              	.L357:
 799 0454 4FF48013 		mov	r3, #1048576
 800 0458 18E0     		b	.L86
 801              	.L356:
 802 045a 4FF48013 		mov	r3, #1048576
 803 045e 15E0     		b	.L86
 804              	.L355:
 805 0460 4FF48013 		mov	r3, #1048576
 806 0464 12E0     		b	.L86
 807              	.L354:
 808 0466 4FF48063 		mov	r3, #1024
 809 046a 0FE0     		b	.L86
 810              	.L353:
 811 046c 4FF48063 		mov	r3, #1024
 812 0470 0CE0     		b	.L86
 813              	.L352:
 814 0472 4FF48063 		mov	r3, #1024
 815 0476 09E0     		b	.L86
 816              	.L351:
 817 0478 4FF48063 		mov	r3, #1024
 818 047c 06E0     		b	.L86
 819              	.L350:
 820 047e 1023     		movs	r3, #16
 821 0480 04E0     		b	.L86
ARM GAS  /tmp/ccYYUFl4.s 			page 23


 822              	.L349:
 823 0482 1023     		movs	r3, #16
 824 0484 02E0     		b	.L86
 825              	.L348:
 826 0486 1023     		movs	r3, #16
 827 0488 00E0     		b	.L86
 828              	.L347:
 829 048a 1023     		movs	r3, #16
 830              	.L86:
 214:Drivers/STM32F4xx_HAL_Driver/Src/stm32f4xx_hal_dma_ex.c ****     __HAL_DMA_CLEAR_FLAG (hdma, __HAL_DMA_GET_TE_FLAG_INDEX(hdma));
 831              		.loc 1 214 0 discriminator 100
 832 048c 564A     		ldr	r2, .L530+8
 833 048e 9360     		str	r3, [r2, #8]
 834 0490 B5E0     		b	.L84
 835              	.L85:
 214:Drivers/STM32F4xx_HAL_Driver/Src/stm32f4xx_hal_dma_ex.c ****     __HAL_DMA_CLEAR_FLAG (hdma, __HAL_DMA_GET_TE_FLAG_INDEX(hdma));
 836              		.loc 1 214 0 discriminator 52
 837 0492 574A     		ldr	r2, .L530+16
 838 0494 9342     		cmp	r3, r2
 839 0496 53D9     		bls	.L98
 214:Drivers/STM32F4xx_HAL_Driver/Src/stm32f4xx_hal_dma_ex.c ****     __HAL_DMA_CLEAR_FLAG (hdma, __HAL_DMA_GET_TE_FLAG_INDEX(hdma));
 840              		.loc 1 214 0 discriminator 102
 841 0498 483A     		subs	r2, r2, #72
 842 049a 9342     		cmp	r3, r2
 843 049c 4CD0     		beq	.L359
 214:Drivers/STM32F4xx_HAL_Driver/Src/stm32f4xx_hal_dma_ex.c ****     __HAL_DMA_CLEAR_FLAG (hdma, __HAL_DMA_GET_TE_FLAG_INDEX(hdma));
 844              		.loc 1 214 0 discriminator 104
 845 049e 02F58062 		add	r2, r2, #1024
 846 04a2 9342     		cmp	r3, r2
 847 04a4 46D0     		beq	.L360
 214:Drivers/STM32F4xx_HAL_Driver/Src/stm32f4xx_hal_dma_ex.c ****     __HAL_DMA_CLEAR_FLAG (hdma, __HAL_DMA_GET_TE_FLAG_INDEX(hdma));
 848              		.loc 1 214 0 discriminator 106
 849 04a6 A2F56872 		sub	r2, r2, #928
 850 04aa 9342     		cmp	r3, r2
 851 04ac 40D0     		beq	.L361
 214:Drivers/STM32F4xx_HAL_Driver/Src/stm32f4xx_hal_dma_ex.c ****     __HAL_DMA_CLEAR_FLAG (hdma, __HAL_DMA_GET_TE_FLAG_INDEX(hdma));
 852              		.loc 1 214 0 discriminator 108
 853 04ae 02F58062 		add	r2, r2, #1024
 854 04b2 9342     		cmp	r3, r2
 855 04b4 3AD0     		beq	.L362
 214:Drivers/STM32F4xx_HAL_Driver/Src/stm32f4xx_hal_dma_ex.c ****     __HAL_DMA_CLEAR_FLAG (hdma, __HAL_DMA_GET_TE_FLAG_INDEX(hdma));
 856              		.loc 1 214 0 discriminator 110
 857 04b6 A2F58962 		sub	r2, r2, #1096
 858 04ba 9342     		cmp	r3, r2
 859 04bc 33D0     		beq	.L363
 214:Drivers/STM32F4xx_HAL_Driver/Src/stm32f4xx_hal_dma_ex.c ****     __HAL_DMA_CLEAR_FLAG (hdma, __HAL_DMA_GET_TE_FLAG_INDEX(hdma));
 860              		.loc 1 214 0 discriminator 112
 861 04be 02F58062 		add	r2, r2, #1024
 862 04c2 9342     		cmp	r3, r2
 863 04c4 2CD0     		beq	.L364
 214:Drivers/STM32F4xx_HAL_Driver/Src/stm32f4xx_hal_dma_ex.c ****     __HAL_DMA_CLEAR_FLAG (hdma, __HAL_DMA_GET_TE_FLAG_INDEX(hdma));
 864              		.loc 1 214 0 discriminator 114
 865 04c6 A2F56872 		sub	r2, r2, #928
 866 04ca 9342     		cmp	r3, r2
 867 04cc 25D0     		beq	.L365
 214:Drivers/STM32F4xx_HAL_Driver/Src/stm32f4xx_hal_dma_ex.c ****     __HAL_DMA_CLEAR_FLAG (hdma, __HAL_DMA_GET_TE_FLAG_INDEX(hdma));
 868              		.loc 1 214 0 discriminator 116
ARM GAS  /tmp/ccYYUFl4.s 			page 24


 869 04ce 02F58062 		add	r2, r2, #1024
 870 04d2 9342     		cmp	r3, r2
 871 04d4 1ED0     		beq	.L366
 214:Drivers/STM32F4xx_HAL_Driver/Src/stm32f4xx_hal_dma_ex.c ****     __HAL_DMA_CLEAR_FLAG (hdma, __HAL_DMA_GET_TE_FLAG_INDEX(hdma));
 872              		.loc 1 214 0 discriminator 118
 873 04d6 A2F58962 		sub	r2, r2, #1096
 874 04da 9342     		cmp	r3, r2
 875 04dc 17D0     		beq	.L367
 214:Drivers/STM32F4xx_HAL_Driver/Src/stm32f4xx_hal_dma_ex.c ****     __HAL_DMA_CLEAR_FLAG (hdma, __HAL_DMA_GET_TE_FLAG_INDEX(hdma));
 876              		.loc 1 214 0 discriminator 120
 877 04de 02F58062 		add	r2, r2, #1024
 878 04e2 9342     		cmp	r3, r2
 879 04e4 10D0     		beq	.L368
 214:Drivers/STM32F4xx_HAL_Driver/Src/stm32f4xx_hal_dma_ex.c ****     __HAL_DMA_CLEAR_FLAG (hdma, __HAL_DMA_GET_TE_FLAG_INDEX(hdma));
 880              		.loc 1 214 0 discriminator 122
 881 04e6 A2F56872 		sub	r2, r2, #928
 882 04ea 9342     		cmp	r3, r2
 883 04ec 09D0     		beq	.L369
 214:Drivers/STM32F4xx_HAL_Driver/Src/stm32f4xx_hal_dma_ex.c ****     __HAL_DMA_CLEAR_FLAG (hdma, __HAL_DMA_GET_TE_FLAG_INDEX(hdma));
 884              		.loc 1 214 0 discriminator 124
 885 04ee 02F58062 		add	r2, r2, #1024
 886 04f2 9342     		cmp	r3, r2
 887 04f4 02D1     		bne	.L370
 214:Drivers/STM32F4xx_HAL_Driver/Src/stm32f4xx_hal_dma_ex.c ****     __HAL_DMA_CLEAR_FLAG (hdma, __HAL_DMA_GET_TE_FLAG_INDEX(hdma));
 888              		.loc 1 214 0
 889 04f6 4FF48013 		mov	r3, #1048576
 890 04fa 1EE0     		b	.L99
 891              	.L370:
 892 04fc 4FF08063 		mov	r3, #67108864
 893 0500 1BE0     		b	.L99
 894              	.L369:
 895 0502 4FF48013 		mov	r3, #1048576
 896 0506 18E0     		b	.L99
 897              	.L368:
 898 0508 4FF48013 		mov	r3, #1048576
 899 050c 15E0     		b	.L99
 900              	.L367:
 901 050e 4FF48013 		mov	r3, #1048576
 902 0512 12E0     		b	.L99
 903              	.L366:
 904 0514 4FF48063 		mov	r3, #1024
 905 0518 0FE0     		b	.L99
 906              	.L365:
 907 051a 4FF48063 		mov	r3, #1024
 908 051e 0CE0     		b	.L99
 909              	.L364:
 910 0520 4FF48063 		mov	r3, #1024
 911 0524 09E0     		b	.L99
 912              	.L363:
 913 0526 4FF48063 		mov	r3, #1024
 914 052a 06E0     		b	.L99
 915              	.L362:
 916 052c 1023     		movs	r3, #16
 917 052e 04E0     		b	.L99
 918              	.L361:
 919 0530 1023     		movs	r3, #16
 920 0532 02E0     		b	.L99
ARM GAS  /tmp/ccYYUFl4.s 			page 25


 921              	.L360:
 922 0534 1023     		movs	r3, #16
 923 0536 00E0     		b	.L99
 924              	.L359:
 925 0538 1023     		movs	r3, #16
 926              	.L99:
 214:Drivers/STM32F4xx_HAL_Driver/Src/stm32f4xx_hal_dma_ex.c ****     __HAL_DMA_CLEAR_FLAG (hdma, __HAL_DMA_GET_TE_FLAG_INDEX(hdma));
 927              		.loc 1 214 0 discriminator 151
 928 053a 294A     		ldr	r2, .L530
 929 053c D360     		str	r3, [r2, #12]
 930 053e 5EE0     		b	.L84
 931              	.L98:
 214:Drivers/STM32F4xx_HAL_Driver/Src/stm32f4xx_hal_dma_ex.c ****     __HAL_DMA_CLEAR_FLAG (hdma, __HAL_DMA_GET_TE_FLAG_INDEX(hdma));
 932              		.loc 1 214 0 discriminator 103
 933 0540 2C4A     		ldr	r2, .L530+20
 934 0542 9342     		cmp	r3, r2
 935 0544 58D0     		beq	.L371
 214:Drivers/STM32F4xx_HAL_Driver/Src/stm32f4xx_hal_dma_ex.c ****     __HAL_DMA_CLEAR_FLAG (hdma, __HAL_DMA_GET_TE_FLAG_INDEX(hdma));
 936              		.loc 1 214 0 discriminator 153
 937 0546 02F58062 		add	r2, r2, #1024
 938 054a 9342     		cmp	r3, r2
 939 054c 46D0     		beq	.L372
 214:Drivers/STM32F4xx_HAL_Driver/Src/stm32f4xx_hal_dma_ex.c ****     __HAL_DMA_CLEAR_FLAG (hdma, __HAL_DMA_GET_TE_FLAG_INDEX(hdma));
 940              		.loc 1 214 0 discriminator 155
 941 054e A2F56872 		sub	r2, r2, #928
 942 0552 9342     		cmp	r3, r2
 943 0554 40D0     		beq	.L373
 214:Drivers/STM32F4xx_HAL_Driver/Src/stm32f4xx_hal_dma_ex.c ****     __HAL_DMA_CLEAR_FLAG (hdma, __HAL_DMA_GET_TE_FLAG_INDEX(hdma));
 944              		.loc 1 214 0 discriminator 157
 945 0556 02F58062 		add	r2, r2, #1024
 946 055a 9342     		cmp	r3, r2
 947 055c 3AD0     		beq	.L374
 214:Drivers/STM32F4xx_HAL_Driver/Src/stm32f4xx_hal_dma_ex.c ****     __HAL_DMA_CLEAR_FLAG (hdma, __HAL_DMA_GET_TE_FLAG_INDEX(hdma));
 948              		.loc 1 214 0 discriminator 159
 949 055e A2F58962 		sub	r2, r2, #1096
 950 0562 9342     		cmp	r3, r2
 951 0564 33D0     		beq	.L375
 214:Drivers/STM32F4xx_HAL_Driver/Src/stm32f4xx_hal_dma_ex.c ****     __HAL_DMA_CLEAR_FLAG (hdma, __HAL_DMA_GET_TE_FLAG_INDEX(hdma));
 952              		.loc 1 214 0 discriminator 161
 953 0566 02F58062 		add	r2, r2, #1024
 954 056a 9342     		cmp	r3, r2
 955 056c 2CD0     		beq	.L376
 214:Drivers/STM32F4xx_HAL_Driver/Src/stm32f4xx_hal_dma_ex.c ****     __HAL_DMA_CLEAR_FLAG (hdma, __HAL_DMA_GET_TE_FLAG_INDEX(hdma));
 956              		.loc 1 214 0 discriminator 163
 957 056e A2F56872 		sub	r2, r2, #928
 958 0572 9342     		cmp	r3, r2
 959 0574 25D0     		beq	.L377
 214:Drivers/STM32F4xx_HAL_Driver/Src/stm32f4xx_hal_dma_ex.c ****     __HAL_DMA_CLEAR_FLAG (hdma, __HAL_DMA_GET_TE_FLAG_INDEX(hdma));
 960              		.loc 1 214 0 discriminator 165
 961 0576 02F58062 		add	r2, r2, #1024
 962 057a 9342     		cmp	r3, r2
 963 057c 1ED0     		beq	.L378
 214:Drivers/STM32F4xx_HAL_Driver/Src/stm32f4xx_hal_dma_ex.c ****     __HAL_DMA_CLEAR_FLAG (hdma, __HAL_DMA_GET_TE_FLAG_INDEX(hdma));
 964              		.loc 1 214 0 discriminator 167
 965 057e A2F58962 		sub	r2, r2, #1096
 966 0582 9342     		cmp	r3, r2
 967 0584 17D0     		beq	.L379
ARM GAS  /tmp/ccYYUFl4.s 			page 26


 214:Drivers/STM32F4xx_HAL_Driver/Src/stm32f4xx_hal_dma_ex.c ****     __HAL_DMA_CLEAR_FLAG (hdma, __HAL_DMA_GET_TE_FLAG_INDEX(hdma));
 968              		.loc 1 214 0 discriminator 169
 969 0586 02F58062 		add	r2, r2, #1024
 970 058a 9342     		cmp	r3, r2
 971 058c 10D0     		beq	.L380
 214:Drivers/STM32F4xx_HAL_Driver/Src/stm32f4xx_hal_dma_ex.c ****     __HAL_DMA_CLEAR_FLAG (hdma, __HAL_DMA_GET_TE_FLAG_INDEX(hdma));
 972              		.loc 1 214 0 discriminator 171
 973 058e A2F56872 		sub	r2, r2, #928
 974 0592 9342     		cmp	r3, r2
 975 0594 09D0     		beq	.L381
 214:Drivers/STM32F4xx_HAL_Driver/Src/stm32f4xx_hal_dma_ex.c ****     __HAL_DMA_CLEAR_FLAG (hdma, __HAL_DMA_GET_TE_FLAG_INDEX(hdma));
 976              		.loc 1 214 0 discriminator 173
 977 0596 02F58062 		add	r2, r2, #1024
 978 059a 9342     		cmp	r3, r2
 979 059c 02D1     		bne	.L382
 214:Drivers/STM32F4xx_HAL_Driver/Src/stm32f4xx_hal_dma_ex.c ****     __HAL_DMA_CLEAR_FLAG (hdma, __HAL_DMA_GET_TE_FLAG_INDEX(hdma));
 980              		.loc 1 214 0
 981 059e 4FF48013 		mov	r3, #1048576
 982 05a2 2AE0     		b	.L112
 983              	.L382:
 984 05a4 4FF08063 		mov	r3, #67108864
 985 05a8 27E0     		b	.L112
 986              	.L381:
 987 05aa 4FF48013 		mov	r3, #1048576
 988 05ae 24E0     		b	.L112
 989              	.L380:
 990 05b0 4FF48013 		mov	r3, #1048576
 991 05b4 21E0     		b	.L112
 992              	.L379:
 993 05b6 4FF48013 		mov	r3, #1048576
 994 05ba 1EE0     		b	.L112
 995              	.L378:
 996 05bc 4FF48063 		mov	r3, #1024
 997 05c0 1BE0     		b	.L112
 998              	.L377:
 999 05c2 4FF48063 		mov	r3, #1024
 1000 05c6 18E0     		b	.L112
 1001              	.L376:
 1002 05c8 4FF48063 		mov	r3, #1024
 1003 05cc 15E0     		b	.L112
 1004              	.L375:
 1005 05ce 4FF48063 		mov	r3, #1024
 1006 05d2 12E0     		b	.L112
 1007              	.L374:
 1008 05d4 1023     		movs	r3, #16
 1009 05d6 10E0     		b	.L112
 1010              	.L373:
 1011 05d8 1023     		movs	r3, #16
 1012 05da 0EE0     		b	.L112
 1013              	.L372:
 1014 05dc 1023     		movs	r3, #16
 1015 05de 0CE0     		b	.L112
 1016              	.L531:
 1017              		.align	2
 1018              	.L530:
 1019 05e0 00600240 		.word	1073897472
 1020 05e4 58640240 		.word	1073898584
ARM GAS  /tmp/ccYYUFl4.s 			page 27


 1021 05e8 00640240 		.word	1073898496
 1022 05ec B8600240 		.word	1073897656
 1023 05f0 58600240 		.word	1073897560
 1024 05f4 10600240 		.word	1073897488
 1025              	.L371:
 1026 05f8 1023     		movs	r3, #16
 1027              	.L112:
 214:Drivers/STM32F4xx_HAL_Driver/Src/stm32f4xx_hal_dma_ex.c ****     __HAL_DMA_CLEAR_FLAG (hdma, __HAL_DMA_GET_TE_FLAG_INDEX(hdma));
 1028              		.loc 1 214 0 discriminator 200
 1029 05fa AC4A     		ldr	r2, .L532
 1030 05fc 9360     		str	r3, [r2, #8]
 1031              	.L84:
 215:Drivers/STM32F4xx_HAL_Driver/Src/stm32f4xx_hal_dma_ex.c ****     __HAL_DMA_CLEAR_FLAG (hdma, __HAL_DMA_GET_DME_FLAG_INDEX(hdma));
 1032              		.loc 1 215 0 is_stmt 1
 1033 05fe 2368     		ldr	r3, [r4]
 1034 0600 AB4A     		ldr	r2, .L532+4
 1035 0602 9342     		cmp	r3, r2
 1036 0604 54D9     		bls	.L124
 215:Drivers/STM32F4xx_HAL_Driver/Src/stm32f4xx_hal_dma_ex.c ****     __HAL_DMA_CLEAR_FLAG (hdma, __HAL_DMA_GET_DME_FLAG_INDEX(hdma));
 1037              		.loc 1 215 0 is_stmt 0 discriminator 1
 1038 0606 A2F58962 		sub	r2, r2, #1096
 1039 060a 9342     		cmp	r3, r2
 1040 060c 4CD0     		beq	.L383
 215:Drivers/STM32F4xx_HAL_Driver/Src/stm32f4xx_hal_dma_ex.c ****     __HAL_DMA_CLEAR_FLAG (hdma, __HAL_DMA_GET_DME_FLAG_INDEX(hdma));
 1041              		.loc 1 215 0 discriminator 3
 1042 060e 02F58062 		add	r2, r2, #1024
 1043 0612 9342     		cmp	r3, r2
 1044 0614 46D0     		beq	.L384
 215:Drivers/STM32F4xx_HAL_Driver/Src/stm32f4xx_hal_dma_ex.c ****     __HAL_DMA_CLEAR_FLAG (hdma, __HAL_DMA_GET_DME_FLAG_INDEX(hdma));
 1045              		.loc 1 215 0 discriminator 5
 1046 0616 A2F56872 		sub	r2, r2, #928
 1047 061a 9342     		cmp	r3, r2
 1048 061c 40D0     		beq	.L385
 215:Drivers/STM32F4xx_HAL_Driver/Src/stm32f4xx_hal_dma_ex.c ****     __HAL_DMA_CLEAR_FLAG (hdma, __HAL_DMA_GET_DME_FLAG_INDEX(hdma));
 1049              		.loc 1 215 0 discriminator 7
 1050 061e 02F58062 		add	r2, r2, #1024
 1051 0622 9342     		cmp	r3, r2
 1052 0624 3AD0     		beq	.L386
 215:Drivers/STM32F4xx_HAL_Driver/Src/stm32f4xx_hal_dma_ex.c ****     __HAL_DMA_CLEAR_FLAG (hdma, __HAL_DMA_GET_DME_FLAG_INDEX(hdma));
 1053              		.loc 1 215 0 discriminator 9
 1054 0626 A2F58962 		sub	r2, r2, #1096
 1055 062a 9342     		cmp	r3, r2
 1056 062c 33D0     		beq	.L387
 215:Drivers/STM32F4xx_HAL_Driver/Src/stm32f4xx_hal_dma_ex.c ****     __HAL_DMA_CLEAR_FLAG (hdma, __HAL_DMA_GET_DME_FLAG_INDEX(hdma));
 1057              		.loc 1 215 0 discriminator 11
 1058 062e 02F58062 		add	r2, r2, #1024
 1059 0632 9342     		cmp	r3, r2
 1060 0634 2CD0     		beq	.L388
 215:Drivers/STM32F4xx_HAL_Driver/Src/stm32f4xx_hal_dma_ex.c ****     __HAL_DMA_CLEAR_FLAG (hdma, __HAL_DMA_GET_DME_FLAG_INDEX(hdma));
 1061              		.loc 1 215 0 discriminator 13
 1062 0636 A2F56872 		sub	r2, r2, #928
 1063 063a 9342     		cmp	r3, r2
 1064 063c 25D0     		beq	.L389
 215:Drivers/STM32F4xx_HAL_Driver/Src/stm32f4xx_hal_dma_ex.c ****     __HAL_DMA_CLEAR_FLAG (hdma, __HAL_DMA_GET_DME_FLAG_INDEX(hdma));
 1065              		.loc 1 215 0 discriminator 15
 1066 063e 02F58062 		add	r2, r2, #1024
 1067 0642 9342     		cmp	r3, r2
ARM GAS  /tmp/ccYYUFl4.s 			page 28


 1068 0644 1ED0     		beq	.L390
 215:Drivers/STM32F4xx_HAL_Driver/Src/stm32f4xx_hal_dma_ex.c ****     __HAL_DMA_CLEAR_FLAG (hdma, __HAL_DMA_GET_DME_FLAG_INDEX(hdma));
 1069              		.loc 1 215 0 discriminator 17
 1070 0646 A2F58962 		sub	r2, r2, #1096
 1071 064a 9342     		cmp	r3, r2
 1072 064c 17D0     		beq	.L391
 215:Drivers/STM32F4xx_HAL_Driver/Src/stm32f4xx_hal_dma_ex.c ****     __HAL_DMA_CLEAR_FLAG (hdma, __HAL_DMA_GET_DME_FLAG_INDEX(hdma));
 1073              		.loc 1 215 0 discriminator 19
 1074 064e 02F58062 		add	r2, r2, #1024
 1075 0652 9342     		cmp	r3, r2
 1076 0654 10D0     		beq	.L392
 215:Drivers/STM32F4xx_HAL_Driver/Src/stm32f4xx_hal_dma_ex.c ****     __HAL_DMA_CLEAR_FLAG (hdma, __HAL_DMA_GET_DME_FLAG_INDEX(hdma));
 1077              		.loc 1 215 0 discriminator 21
 1078 0656 A2F56872 		sub	r2, r2, #928
 1079 065a 9342     		cmp	r3, r2
 1080 065c 09D0     		beq	.L393
 215:Drivers/STM32F4xx_HAL_Driver/Src/stm32f4xx_hal_dma_ex.c ****     __HAL_DMA_CLEAR_FLAG (hdma, __HAL_DMA_GET_DME_FLAG_INDEX(hdma));
 1081              		.loc 1 215 0 discriminator 23
 1082 065e 02F58062 		add	r2, r2, #1024
 1083 0662 9342     		cmp	r3, r2
 1084 0664 02D1     		bne	.L394
 215:Drivers/STM32F4xx_HAL_Driver/Src/stm32f4xx_hal_dma_ex.c ****     __HAL_DMA_CLEAR_FLAG (hdma, __HAL_DMA_GET_DME_FLAG_INDEX(hdma));
 1085              		.loc 1 215 0
 1086 0666 4FF40023 		mov	r3, #524288
 1087 066a 1EE0     		b	.L125
 1088              	.L394:
 1089 066c 4FF00073 		mov	r3, #33554432
 1090 0670 1BE0     		b	.L125
 1091              	.L393:
 1092 0672 4FF40023 		mov	r3, #524288
 1093 0676 18E0     		b	.L125
 1094              	.L392:
 1095 0678 4FF40023 		mov	r3, #524288
 1096 067c 15E0     		b	.L125
 1097              	.L391:
 1098 067e 4FF40023 		mov	r3, #524288
 1099 0682 12E0     		b	.L125
 1100              	.L390:
 1101 0684 4FF40073 		mov	r3, #512
 1102 0688 0FE0     		b	.L125
 1103              	.L389:
 1104 068a 4FF40073 		mov	r3, #512
 1105 068e 0CE0     		b	.L125
 1106              	.L388:
 1107 0690 4FF40073 		mov	r3, #512
 1108 0694 09E0     		b	.L125
 1109              	.L387:
 1110 0696 4FF40073 		mov	r3, #512
 1111 069a 06E0     		b	.L125
 1112              	.L386:
 1113 069c 0823     		movs	r3, #8
 1114 069e 04E0     		b	.L125
 1115              	.L385:
 1116 06a0 0823     		movs	r3, #8
 1117 06a2 02E0     		b	.L125
 1118              	.L384:
 1119 06a4 0823     		movs	r3, #8
ARM GAS  /tmp/ccYYUFl4.s 			page 29


 1120 06a6 00E0     		b	.L125
 1121              	.L383:
 1122 06a8 0823     		movs	r3, #8
 1123              	.L125:
 215:Drivers/STM32F4xx_HAL_Driver/Src/stm32f4xx_hal_dma_ex.c ****     __HAL_DMA_CLEAR_FLAG (hdma, __HAL_DMA_GET_DME_FLAG_INDEX(hdma));
 1124              		.loc 1 215 0 discriminator 50
 1125 06aa 824A     		ldr	r2, .L532+8
 1126 06ac D360     		str	r3, [r2, #12]
 1127 06ae 0CE1     		b	.L137
 1128              	.L124:
 215:Drivers/STM32F4xx_HAL_Driver/Src/stm32f4xx_hal_dma_ex.c ****     __HAL_DMA_CLEAR_FLAG (hdma, __HAL_DMA_GET_DME_FLAG_INDEX(hdma));
 1129              		.loc 1 215 0 discriminator 2
 1130 06b0 814A     		ldr	r2, .L532+12
 1131 06b2 9342     		cmp	r3, r2
 1132 06b4 53D9     		bls	.L138
 215:Drivers/STM32F4xx_HAL_Driver/Src/stm32f4xx_hal_dma_ex.c ****     __HAL_DMA_CLEAR_FLAG (hdma, __HAL_DMA_GET_DME_FLAG_INDEX(hdma));
 1133              		.loc 1 215 0 discriminator 51
 1134 06b6 A83A     		subs	r2, r2, #168
 1135 06b8 9342     		cmp	r3, r2
 1136 06ba 4CD0     		beq	.L395
 215:Drivers/STM32F4xx_HAL_Driver/Src/stm32f4xx_hal_dma_ex.c ****     __HAL_DMA_CLEAR_FLAG (hdma, __HAL_DMA_GET_DME_FLAG_INDEX(hdma));
 1137              		.loc 1 215 0 discriminator 53
 1138 06bc 02F58062 		add	r2, r2, #1024
 1139 06c0 9342     		cmp	r3, r2
 1140 06c2 46D0     		beq	.L396
 215:Drivers/STM32F4xx_HAL_Driver/Src/stm32f4xx_hal_dma_ex.c ****     __HAL_DMA_CLEAR_FLAG (hdma, __HAL_DMA_GET_DME_FLAG_INDEX(hdma));
 1141              		.loc 1 215 0 discriminator 55
 1142 06c4 A2F56872 		sub	r2, r2, #928
 1143 06c8 9342     		cmp	r3, r2
 1144 06ca 40D0     		beq	.L397
 215:Drivers/STM32F4xx_HAL_Driver/Src/stm32f4xx_hal_dma_ex.c ****     __HAL_DMA_CLEAR_FLAG (hdma, __HAL_DMA_GET_DME_FLAG_INDEX(hdma));
 1145              		.loc 1 215 0 discriminator 57
 1146 06cc 02F58062 		add	r2, r2, #1024
 1147 06d0 9342     		cmp	r3, r2
 1148 06d2 3AD0     		beq	.L398
 215:Drivers/STM32F4xx_HAL_Driver/Src/stm32f4xx_hal_dma_ex.c ****     __HAL_DMA_CLEAR_FLAG (hdma, __HAL_DMA_GET_DME_FLAG_INDEX(hdma));
 1149              		.loc 1 215 0 discriminator 59
 1150 06d4 A2F58962 		sub	r2, r2, #1096
 1151 06d8 9342     		cmp	r3, r2
 1152 06da 33D0     		beq	.L399
 215:Drivers/STM32F4xx_HAL_Driver/Src/stm32f4xx_hal_dma_ex.c ****     __HAL_DMA_CLEAR_FLAG (hdma, __HAL_DMA_GET_DME_FLAG_INDEX(hdma));
 1153              		.loc 1 215 0 discriminator 61
 1154 06dc 02F58062 		add	r2, r2, #1024
 1155 06e0 9342     		cmp	r3, r2
 1156 06e2 2CD0     		beq	.L400
 215:Drivers/STM32F4xx_HAL_Driver/Src/stm32f4xx_hal_dma_ex.c ****     __HAL_DMA_CLEAR_FLAG (hdma, __HAL_DMA_GET_DME_FLAG_INDEX(hdma));
 1157              		.loc 1 215 0 discriminator 63
 1158 06e4 A2F56872 		sub	r2, r2, #928
 1159 06e8 9342     		cmp	r3, r2
 1160 06ea 25D0     		beq	.L401
 215:Drivers/STM32F4xx_HAL_Driver/Src/stm32f4xx_hal_dma_ex.c ****     __HAL_DMA_CLEAR_FLAG (hdma, __HAL_DMA_GET_DME_FLAG_INDEX(hdma));
 1161              		.loc 1 215 0 discriminator 65
 1162 06ec 02F58062 		add	r2, r2, #1024
 1163 06f0 9342     		cmp	r3, r2
 1164 06f2 1ED0     		beq	.L402
 215:Drivers/STM32F4xx_HAL_Driver/Src/stm32f4xx_hal_dma_ex.c ****     __HAL_DMA_CLEAR_FLAG (hdma, __HAL_DMA_GET_DME_FLAG_INDEX(hdma));
 1165              		.loc 1 215 0 discriminator 67
ARM GAS  /tmp/ccYYUFl4.s 			page 30


 1166 06f4 A2F58962 		sub	r2, r2, #1096
 1167 06f8 9342     		cmp	r3, r2
 1168 06fa 17D0     		beq	.L403
 215:Drivers/STM32F4xx_HAL_Driver/Src/stm32f4xx_hal_dma_ex.c ****     __HAL_DMA_CLEAR_FLAG (hdma, __HAL_DMA_GET_DME_FLAG_INDEX(hdma));
 1169              		.loc 1 215 0 discriminator 69
 1170 06fc 02F58062 		add	r2, r2, #1024
 1171 0700 9342     		cmp	r3, r2
 1172 0702 10D0     		beq	.L404
 215:Drivers/STM32F4xx_HAL_Driver/Src/stm32f4xx_hal_dma_ex.c ****     __HAL_DMA_CLEAR_FLAG (hdma, __HAL_DMA_GET_DME_FLAG_INDEX(hdma));
 1173              		.loc 1 215 0 discriminator 71
 1174 0704 A2F56872 		sub	r2, r2, #928
 1175 0708 9342     		cmp	r3, r2
 1176 070a 09D0     		beq	.L405
 215:Drivers/STM32F4xx_HAL_Driver/Src/stm32f4xx_hal_dma_ex.c ****     __HAL_DMA_CLEAR_FLAG (hdma, __HAL_DMA_GET_DME_FLAG_INDEX(hdma));
 1177              		.loc 1 215 0 discriminator 73
 1178 070c 02F58062 		add	r2, r2, #1024
 1179 0710 9342     		cmp	r3, r2
 1180 0712 02D1     		bne	.L406
 215:Drivers/STM32F4xx_HAL_Driver/Src/stm32f4xx_hal_dma_ex.c ****     __HAL_DMA_CLEAR_FLAG (hdma, __HAL_DMA_GET_DME_FLAG_INDEX(hdma));
 1181              		.loc 1 215 0
 1182 0714 4FF40023 		mov	r3, #524288
 1183 0718 1EE0     		b	.L139
 1184              	.L406:
 1185 071a 4FF00073 		mov	r3, #33554432
 1186 071e 1BE0     		b	.L139
 1187              	.L405:
 1188 0720 4FF40023 		mov	r3, #524288
 1189 0724 18E0     		b	.L139
 1190              	.L404:
 1191 0726 4FF40023 		mov	r3, #524288
 1192 072a 15E0     		b	.L139
 1193              	.L403:
 1194 072c 4FF40023 		mov	r3, #524288
 1195 0730 12E0     		b	.L139
 1196              	.L402:
 1197 0732 4FF40073 		mov	r3, #512
 1198 0736 0FE0     		b	.L139
 1199              	.L401:
 1200 0738 4FF40073 		mov	r3, #512
 1201 073c 0CE0     		b	.L139
 1202              	.L400:
 1203 073e 4FF40073 		mov	r3, #512
 1204 0742 09E0     		b	.L139
 1205              	.L399:
 1206 0744 4FF40073 		mov	r3, #512
 1207 0748 06E0     		b	.L139
 1208              	.L398:
 1209 074a 0823     		movs	r3, #8
 1210 074c 04E0     		b	.L139
 1211              	.L397:
 1212 074e 0823     		movs	r3, #8
 1213 0750 02E0     		b	.L139
 1214              	.L396:
 1215 0752 0823     		movs	r3, #8
 1216 0754 00E0     		b	.L139
 1217              	.L395:
 1218 0756 0823     		movs	r3, #8
ARM GAS  /tmp/ccYYUFl4.s 			page 31


 1219              	.L139:
 215:Drivers/STM32F4xx_HAL_Driver/Src/stm32f4xx_hal_dma_ex.c ****     __HAL_DMA_CLEAR_FLAG (hdma, __HAL_DMA_GET_DME_FLAG_INDEX(hdma));
 1220              		.loc 1 215 0 discriminator 100
 1221 0758 564A     		ldr	r2, .L532+8
 1222 075a 9360     		str	r3, [r2, #8]
 1223 075c B5E0     		b	.L137
 1224              	.L138:
 215:Drivers/STM32F4xx_HAL_Driver/Src/stm32f4xx_hal_dma_ex.c ****     __HAL_DMA_CLEAR_FLAG (hdma, __HAL_DMA_GET_DME_FLAG_INDEX(hdma));
 1225              		.loc 1 215 0 discriminator 52
 1226 075e 574A     		ldr	r2, .L532+16
 1227 0760 9342     		cmp	r3, r2
 1228 0762 53D9     		bls	.L151
 215:Drivers/STM32F4xx_HAL_Driver/Src/stm32f4xx_hal_dma_ex.c ****     __HAL_DMA_CLEAR_FLAG (hdma, __HAL_DMA_GET_DME_FLAG_INDEX(hdma));
 1229              		.loc 1 215 0 discriminator 102
 1230 0764 483A     		subs	r2, r2, #72
 1231 0766 9342     		cmp	r3, r2
 1232 0768 4CD0     		beq	.L407
 215:Drivers/STM32F4xx_HAL_Driver/Src/stm32f4xx_hal_dma_ex.c ****     __HAL_DMA_CLEAR_FLAG (hdma, __HAL_DMA_GET_DME_FLAG_INDEX(hdma));
 1233              		.loc 1 215 0 discriminator 104
 1234 076a 02F58062 		add	r2, r2, #1024
 1235 076e 9342     		cmp	r3, r2
 1236 0770 46D0     		beq	.L408
 215:Drivers/STM32F4xx_HAL_Driver/Src/stm32f4xx_hal_dma_ex.c ****     __HAL_DMA_CLEAR_FLAG (hdma, __HAL_DMA_GET_DME_FLAG_INDEX(hdma));
 1237              		.loc 1 215 0 discriminator 106
 1238 0772 A2F56872 		sub	r2, r2, #928
 1239 0776 9342     		cmp	r3, r2
 1240 0778 40D0     		beq	.L409
 215:Drivers/STM32F4xx_HAL_Driver/Src/stm32f4xx_hal_dma_ex.c ****     __HAL_DMA_CLEAR_FLAG (hdma, __HAL_DMA_GET_DME_FLAG_INDEX(hdma));
 1241              		.loc 1 215 0 discriminator 108
 1242 077a 02F58062 		add	r2, r2, #1024
 1243 077e 9342     		cmp	r3, r2
 1244 0780 3AD0     		beq	.L410
 215:Drivers/STM32F4xx_HAL_Driver/Src/stm32f4xx_hal_dma_ex.c ****     __HAL_DMA_CLEAR_FLAG (hdma, __HAL_DMA_GET_DME_FLAG_INDEX(hdma));
 1245              		.loc 1 215 0 discriminator 110
 1246 0782 A2F58962 		sub	r2, r2, #1096
 1247 0786 9342     		cmp	r3, r2
 1248 0788 33D0     		beq	.L411
 215:Drivers/STM32F4xx_HAL_Driver/Src/stm32f4xx_hal_dma_ex.c ****     __HAL_DMA_CLEAR_FLAG (hdma, __HAL_DMA_GET_DME_FLAG_INDEX(hdma));
 1249              		.loc 1 215 0 discriminator 112
 1250 078a 02F58062 		add	r2, r2, #1024
 1251 078e 9342     		cmp	r3, r2
 1252 0790 2CD0     		beq	.L412
 215:Drivers/STM32F4xx_HAL_Driver/Src/stm32f4xx_hal_dma_ex.c ****     __HAL_DMA_CLEAR_FLAG (hdma, __HAL_DMA_GET_DME_FLAG_INDEX(hdma));
 1253              		.loc 1 215 0 discriminator 114
 1254 0792 A2F56872 		sub	r2, r2, #928
 1255 0796 9342     		cmp	r3, r2
 1256 0798 25D0     		beq	.L413
 215:Drivers/STM32F4xx_HAL_Driver/Src/stm32f4xx_hal_dma_ex.c ****     __HAL_DMA_CLEAR_FLAG (hdma, __HAL_DMA_GET_DME_FLAG_INDEX(hdma));
 1257              		.loc 1 215 0 discriminator 116
 1258 079a 02F58062 		add	r2, r2, #1024
 1259 079e 9342     		cmp	r3, r2
 1260 07a0 1ED0     		beq	.L414
 215:Drivers/STM32F4xx_HAL_Driver/Src/stm32f4xx_hal_dma_ex.c ****     __HAL_DMA_CLEAR_FLAG (hdma, __HAL_DMA_GET_DME_FLAG_INDEX(hdma));
 1261              		.loc 1 215 0 discriminator 118
 1262 07a2 A2F58962 		sub	r2, r2, #1096
 1263 07a6 9342     		cmp	r3, r2
 1264 07a8 17D0     		beq	.L415
ARM GAS  /tmp/ccYYUFl4.s 			page 32


 215:Drivers/STM32F4xx_HAL_Driver/Src/stm32f4xx_hal_dma_ex.c ****     __HAL_DMA_CLEAR_FLAG (hdma, __HAL_DMA_GET_DME_FLAG_INDEX(hdma));
 1265              		.loc 1 215 0 discriminator 120
 1266 07aa 02F58062 		add	r2, r2, #1024
 1267 07ae 9342     		cmp	r3, r2
 1268 07b0 10D0     		beq	.L416
 215:Drivers/STM32F4xx_HAL_Driver/Src/stm32f4xx_hal_dma_ex.c ****     __HAL_DMA_CLEAR_FLAG (hdma, __HAL_DMA_GET_DME_FLAG_INDEX(hdma));
 1269              		.loc 1 215 0 discriminator 122
 1270 07b2 A2F56872 		sub	r2, r2, #928
 1271 07b6 9342     		cmp	r3, r2
 1272 07b8 09D0     		beq	.L417
 215:Drivers/STM32F4xx_HAL_Driver/Src/stm32f4xx_hal_dma_ex.c ****     __HAL_DMA_CLEAR_FLAG (hdma, __HAL_DMA_GET_DME_FLAG_INDEX(hdma));
 1273              		.loc 1 215 0 discriminator 124
 1274 07ba 02F58062 		add	r2, r2, #1024
 1275 07be 9342     		cmp	r3, r2
 1276 07c0 02D1     		bne	.L418
 215:Drivers/STM32F4xx_HAL_Driver/Src/stm32f4xx_hal_dma_ex.c ****     __HAL_DMA_CLEAR_FLAG (hdma, __HAL_DMA_GET_DME_FLAG_INDEX(hdma));
 1277              		.loc 1 215 0
 1278 07c2 4FF40023 		mov	r3, #524288
 1279 07c6 1EE0     		b	.L152
 1280              	.L418:
 1281 07c8 4FF00073 		mov	r3, #33554432
 1282 07cc 1BE0     		b	.L152
 1283              	.L417:
 1284 07ce 4FF40023 		mov	r3, #524288
 1285 07d2 18E0     		b	.L152
 1286              	.L416:
 1287 07d4 4FF40023 		mov	r3, #524288
 1288 07d8 15E0     		b	.L152
 1289              	.L415:
 1290 07da 4FF40023 		mov	r3, #524288
 1291 07de 12E0     		b	.L152
 1292              	.L414:
 1293 07e0 4FF40073 		mov	r3, #512
 1294 07e4 0FE0     		b	.L152
 1295              	.L413:
 1296 07e6 4FF40073 		mov	r3, #512
 1297 07ea 0CE0     		b	.L152
 1298              	.L412:
 1299 07ec 4FF40073 		mov	r3, #512
 1300 07f0 09E0     		b	.L152
 1301              	.L411:
 1302 07f2 4FF40073 		mov	r3, #512
 1303 07f6 06E0     		b	.L152
 1304              	.L410:
 1305 07f8 0823     		movs	r3, #8
 1306 07fa 04E0     		b	.L152
 1307              	.L409:
 1308 07fc 0823     		movs	r3, #8
 1309 07fe 02E0     		b	.L152
 1310              	.L408:
 1311 0800 0823     		movs	r3, #8
 1312 0802 00E0     		b	.L152
 1313              	.L407:
 1314 0804 0823     		movs	r3, #8
 1315              	.L152:
 215:Drivers/STM32F4xx_HAL_Driver/Src/stm32f4xx_hal_dma_ex.c ****     __HAL_DMA_CLEAR_FLAG (hdma, __HAL_DMA_GET_DME_FLAG_INDEX(hdma));
 1316              		.loc 1 215 0 discriminator 151
ARM GAS  /tmp/ccYYUFl4.s 			page 33


 1317 0806 294A     		ldr	r2, .L532
 1318 0808 D360     		str	r3, [r2, #12]
 1319 080a 5EE0     		b	.L137
 1320              	.L151:
 215:Drivers/STM32F4xx_HAL_Driver/Src/stm32f4xx_hal_dma_ex.c ****     __HAL_DMA_CLEAR_FLAG (hdma, __HAL_DMA_GET_DME_FLAG_INDEX(hdma));
 1321              		.loc 1 215 0 discriminator 103
 1322 080c 2C4A     		ldr	r2, .L532+20
 1323 080e 9342     		cmp	r3, r2
 1324 0810 58D0     		beq	.L419
 215:Drivers/STM32F4xx_HAL_Driver/Src/stm32f4xx_hal_dma_ex.c ****     __HAL_DMA_CLEAR_FLAG (hdma, __HAL_DMA_GET_DME_FLAG_INDEX(hdma));
 1325              		.loc 1 215 0 discriminator 153
 1326 0812 02F58062 		add	r2, r2, #1024
 1327 0816 9342     		cmp	r3, r2
 1328 0818 46D0     		beq	.L420
 215:Drivers/STM32F4xx_HAL_Driver/Src/stm32f4xx_hal_dma_ex.c ****     __HAL_DMA_CLEAR_FLAG (hdma, __HAL_DMA_GET_DME_FLAG_INDEX(hdma));
 1329              		.loc 1 215 0 discriminator 155
 1330 081a A2F56872 		sub	r2, r2, #928
 1331 081e 9342     		cmp	r3, r2
 1332 0820 40D0     		beq	.L421
 215:Drivers/STM32F4xx_HAL_Driver/Src/stm32f4xx_hal_dma_ex.c ****     __HAL_DMA_CLEAR_FLAG (hdma, __HAL_DMA_GET_DME_FLAG_INDEX(hdma));
 1333              		.loc 1 215 0 discriminator 157
 1334 0822 02F58062 		add	r2, r2, #1024
 1335 0826 9342     		cmp	r3, r2
 1336 0828 3AD0     		beq	.L422
 215:Drivers/STM32F4xx_HAL_Driver/Src/stm32f4xx_hal_dma_ex.c ****     __HAL_DMA_CLEAR_FLAG (hdma, __HAL_DMA_GET_DME_FLAG_INDEX(hdma));
 1337              		.loc 1 215 0 discriminator 159
 1338 082a A2F58962 		sub	r2, r2, #1096
 1339 082e 9342     		cmp	r3, r2
 1340 0830 33D0     		beq	.L423
 215:Drivers/STM32F4xx_HAL_Driver/Src/stm32f4xx_hal_dma_ex.c ****     __HAL_DMA_CLEAR_FLAG (hdma, __HAL_DMA_GET_DME_FLAG_INDEX(hdma));
 1341              		.loc 1 215 0 discriminator 161
 1342 0832 02F58062 		add	r2, r2, #1024
 1343 0836 9342     		cmp	r3, r2
 1344 0838 2CD0     		beq	.L424
 215:Drivers/STM32F4xx_HAL_Driver/Src/stm32f4xx_hal_dma_ex.c ****     __HAL_DMA_CLEAR_FLAG (hdma, __HAL_DMA_GET_DME_FLAG_INDEX(hdma));
 1345              		.loc 1 215 0 discriminator 163
 1346 083a A2F56872 		sub	r2, r2, #928
 1347 083e 9342     		cmp	r3, r2
 1348 0840 25D0     		beq	.L425
 215:Drivers/STM32F4xx_HAL_Driver/Src/stm32f4xx_hal_dma_ex.c ****     __HAL_DMA_CLEAR_FLAG (hdma, __HAL_DMA_GET_DME_FLAG_INDEX(hdma));
 1349              		.loc 1 215 0 discriminator 165
 1350 0842 02F58062 		add	r2, r2, #1024
 1351 0846 9342     		cmp	r3, r2
 1352 0848 1ED0     		beq	.L426
 215:Drivers/STM32F4xx_HAL_Driver/Src/stm32f4xx_hal_dma_ex.c ****     __HAL_DMA_CLEAR_FLAG (hdma, __HAL_DMA_GET_DME_FLAG_INDEX(hdma));
 1353              		.loc 1 215 0 discriminator 167
 1354 084a A2F58962 		sub	r2, r2, #1096
 1355 084e 9342     		cmp	r3, r2
 1356 0850 17D0     		beq	.L427
 215:Drivers/STM32F4xx_HAL_Driver/Src/stm32f4xx_hal_dma_ex.c ****     __HAL_DMA_CLEAR_FLAG (hdma, __HAL_DMA_GET_DME_FLAG_INDEX(hdma));
 1357              		.loc 1 215 0 discriminator 169
 1358 0852 02F58062 		add	r2, r2, #1024
 1359 0856 9342     		cmp	r3, r2
 1360 0858 10D0     		beq	.L428
 215:Drivers/STM32F4xx_HAL_Driver/Src/stm32f4xx_hal_dma_ex.c ****     __HAL_DMA_CLEAR_FLAG (hdma, __HAL_DMA_GET_DME_FLAG_INDEX(hdma));
 1361              		.loc 1 215 0 discriminator 171
 1362 085a A2F56872 		sub	r2, r2, #928
ARM GAS  /tmp/ccYYUFl4.s 			page 34


 1363 085e 9342     		cmp	r3, r2
 1364 0860 09D0     		beq	.L429
 215:Drivers/STM32F4xx_HAL_Driver/Src/stm32f4xx_hal_dma_ex.c ****     __HAL_DMA_CLEAR_FLAG (hdma, __HAL_DMA_GET_DME_FLAG_INDEX(hdma));
 1365              		.loc 1 215 0 discriminator 173
 1366 0862 02F58062 		add	r2, r2, #1024
 1367 0866 9342     		cmp	r3, r2
 1368 0868 02D1     		bne	.L430
 215:Drivers/STM32F4xx_HAL_Driver/Src/stm32f4xx_hal_dma_ex.c ****     __HAL_DMA_CLEAR_FLAG (hdma, __HAL_DMA_GET_DME_FLAG_INDEX(hdma));
 1369              		.loc 1 215 0
 1370 086a 4FF40023 		mov	r3, #524288
 1371 086e 2AE0     		b	.L165
 1372              	.L430:
 1373 0870 4FF00073 		mov	r3, #33554432
 1374 0874 27E0     		b	.L165
 1375              	.L429:
 1376 0876 4FF40023 		mov	r3, #524288
 1377 087a 24E0     		b	.L165
 1378              	.L428:
 1379 087c 4FF40023 		mov	r3, #524288
 1380 0880 21E0     		b	.L165
 1381              	.L427:
 1382 0882 4FF40023 		mov	r3, #524288
 1383 0886 1EE0     		b	.L165
 1384              	.L426:
 1385 0888 4FF40073 		mov	r3, #512
 1386 088c 1BE0     		b	.L165
 1387              	.L425:
 1388 088e 4FF40073 		mov	r3, #512
 1389 0892 18E0     		b	.L165
 1390              	.L424:
 1391 0894 4FF40073 		mov	r3, #512
 1392 0898 15E0     		b	.L165
 1393              	.L423:
 1394 089a 4FF40073 		mov	r3, #512
 1395 089e 12E0     		b	.L165
 1396              	.L422:
 1397 08a0 0823     		movs	r3, #8
 1398 08a2 10E0     		b	.L165
 1399              	.L421:
 1400 08a4 0823     		movs	r3, #8
 1401 08a6 0EE0     		b	.L165
 1402              	.L420:
 1403 08a8 0823     		movs	r3, #8
 1404 08aa 0CE0     		b	.L165
 1405              	.L533:
 1406              		.align	2
 1407              	.L532:
 1408 08ac 00600240 		.word	1073897472
 1409 08b0 58640240 		.word	1073898584
 1410 08b4 00640240 		.word	1073898496
 1411 08b8 B8600240 		.word	1073897656
 1412 08bc 58600240 		.word	1073897560
 1413 08c0 10600240 		.word	1073897488
 1414              	.L419:
 1415 08c4 0823     		movs	r3, #8
 1416              	.L165:
 215:Drivers/STM32F4xx_HAL_Driver/Src/stm32f4xx_hal_dma_ex.c ****     __HAL_DMA_CLEAR_FLAG (hdma, __HAL_DMA_GET_DME_FLAG_INDEX(hdma));
ARM GAS  /tmp/ccYYUFl4.s 			page 35


 1417              		.loc 1 215 0 discriminator 200
 1418 08c6 AC4A     		ldr	r2, .L534
 1419 08c8 9360     		str	r3, [r2, #8]
 1420              	.L137:
 216:Drivers/STM32F4xx_HAL_Driver/Src/stm32f4xx_hal_dma_ex.c ****     __HAL_DMA_CLEAR_FLAG (hdma, __HAL_DMA_GET_FE_FLAG_INDEX(hdma));
 1421              		.loc 1 216 0 is_stmt 1
 1422 08ca 2368     		ldr	r3, [r4]
 1423 08cc AB4A     		ldr	r2, .L534+4
 1424 08ce 9342     		cmp	r3, r2
 1425 08d0 54D9     		bls	.L177
 216:Drivers/STM32F4xx_HAL_Driver/Src/stm32f4xx_hal_dma_ex.c ****     __HAL_DMA_CLEAR_FLAG (hdma, __HAL_DMA_GET_FE_FLAG_INDEX(hdma));
 1426              		.loc 1 216 0 is_stmt 0 discriminator 1
 1427 08d2 A2F58962 		sub	r2, r2, #1096
 1428 08d6 9342     		cmp	r3, r2
 1429 08d8 4CD0     		beq	.L431
 216:Drivers/STM32F4xx_HAL_Driver/Src/stm32f4xx_hal_dma_ex.c ****     __HAL_DMA_CLEAR_FLAG (hdma, __HAL_DMA_GET_FE_FLAG_INDEX(hdma));
 1430              		.loc 1 216 0 discriminator 3
 1431 08da 02F58062 		add	r2, r2, #1024
 1432 08de 9342     		cmp	r3, r2
 1433 08e0 46D0     		beq	.L432
 216:Drivers/STM32F4xx_HAL_Driver/Src/stm32f4xx_hal_dma_ex.c ****     __HAL_DMA_CLEAR_FLAG (hdma, __HAL_DMA_GET_FE_FLAG_INDEX(hdma));
 1434              		.loc 1 216 0 discriminator 5
 1435 08e2 A2F56872 		sub	r2, r2, #928
 1436 08e6 9342     		cmp	r3, r2
 1437 08e8 40D0     		beq	.L433
 216:Drivers/STM32F4xx_HAL_Driver/Src/stm32f4xx_hal_dma_ex.c ****     __HAL_DMA_CLEAR_FLAG (hdma, __HAL_DMA_GET_FE_FLAG_INDEX(hdma));
 1438              		.loc 1 216 0 discriminator 7
 1439 08ea 02F58062 		add	r2, r2, #1024
 1440 08ee 9342     		cmp	r3, r2
 1441 08f0 3AD0     		beq	.L434
 216:Drivers/STM32F4xx_HAL_Driver/Src/stm32f4xx_hal_dma_ex.c ****     __HAL_DMA_CLEAR_FLAG (hdma, __HAL_DMA_GET_FE_FLAG_INDEX(hdma));
 1442              		.loc 1 216 0 discriminator 9
 1443 08f2 A2F58962 		sub	r2, r2, #1096
 1444 08f6 9342     		cmp	r3, r2
 1445 08f8 33D0     		beq	.L435
 216:Drivers/STM32F4xx_HAL_Driver/Src/stm32f4xx_hal_dma_ex.c ****     __HAL_DMA_CLEAR_FLAG (hdma, __HAL_DMA_GET_FE_FLAG_INDEX(hdma));
 1446              		.loc 1 216 0 discriminator 11
 1447 08fa 02F58062 		add	r2, r2, #1024
 1448 08fe 9342     		cmp	r3, r2
 1449 0900 2CD0     		beq	.L436
 216:Drivers/STM32F4xx_HAL_Driver/Src/stm32f4xx_hal_dma_ex.c ****     __HAL_DMA_CLEAR_FLAG (hdma, __HAL_DMA_GET_FE_FLAG_INDEX(hdma));
 1450              		.loc 1 216 0 discriminator 13
 1451 0902 A2F56872 		sub	r2, r2, #928
 1452 0906 9342     		cmp	r3, r2
 1453 0908 25D0     		beq	.L437
 216:Drivers/STM32F4xx_HAL_Driver/Src/stm32f4xx_hal_dma_ex.c ****     __HAL_DMA_CLEAR_FLAG (hdma, __HAL_DMA_GET_FE_FLAG_INDEX(hdma));
 1454              		.loc 1 216 0 discriminator 15
 1455 090a 02F58062 		add	r2, r2, #1024
 1456 090e 9342     		cmp	r3, r2
 1457 0910 1ED0     		beq	.L438
 216:Drivers/STM32F4xx_HAL_Driver/Src/stm32f4xx_hal_dma_ex.c ****     __HAL_DMA_CLEAR_FLAG (hdma, __HAL_DMA_GET_FE_FLAG_INDEX(hdma));
 1458              		.loc 1 216 0 discriminator 17
 1459 0912 A2F58962 		sub	r2, r2, #1096
 1460 0916 9342     		cmp	r3, r2
 1461 0918 17D0     		beq	.L439
 216:Drivers/STM32F4xx_HAL_Driver/Src/stm32f4xx_hal_dma_ex.c ****     __HAL_DMA_CLEAR_FLAG (hdma, __HAL_DMA_GET_FE_FLAG_INDEX(hdma));
 1462              		.loc 1 216 0 discriminator 19
ARM GAS  /tmp/ccYYUFl4.s 			page 36


 1463 091a 02F58062 		add	r2, r2, #1024
 1464 091e 9342     		cmp	r3, r2
 1465 0920 10D0     		beq	.L440
 216:Drivers/STM32F4xx_HAL_Driver/Src/stm32f4xx_hal_dma_ex.c ****     __HAL_DMA_CLEAR_FLAG (hdma, __HAL_DMA_GET_FE_FLAG_INDEX(hdma));
 1466              		.loc 1 216 0 discriminator 21
 1467 0922 A2F56872 		sub	r2, r2, #928
 1468 0926 9342     		cmp	r3, r2
 1469 0928 09D0     		beq	.L441
 216:Drivers/STM32F4xx_HAL_Driver/Src/stm32f4xx_hal_dma_ex.c ****     __HAL_DMA_CLEAR_FLAG (hdma, __HAL_DMA_GET_FE_FLAG_INDEX(hdma));
 1470              		.loc 1 216 0 discriminator 23
 1471 092a 02F58062 		add	r2, r2, #1024
 1472 092e 9342     		cmp	r3, r2
 1473 0930 02D1     		bne	.L442
 216:Drivers/STM32F4xx_HAL_Driver/Src/stm32f4xx_hal_dma_ex.c ****     __HAL_DMA_CLEAR_FLAG (hdma, __HAL_DMA_GET_FE_FLAG_INDEX(hdma));
 1474              		.loc 1 216 0
 1475 0932 4FF48023 		mov	r3, #262144
 1476 0936 1EE0     		b	.L178
 1477              	.L442:
 1478 0938 4FF08073 		mov	r3, #16777216
 1479 093c 1BE0     		b	.L178
 1480              	.L441:
 1481 093e 4FF48023 		mov	r3, #262144
 1482 0942 18E0     		b	.L178
 1483              	.L440:
 1484 0944 4FF48023 		mov	r3, #262144
 1485 0948 15E0     		b	.L178
 1486              	.L439:
 1487 094a 4FF48023 		mov	r3, #262144
 1488 094e 12E0     		b	.L178
 1489              	.L438:
 1490 0950 4FF48073 		mov	r3, #256
 1491 0954 0FE0     		b	.L178
 1492              	.L437:
 1493 0956 4FF48073 		mov	r3, #256
 1494 095a 0CE0     		b	.L178
 1495              	.L436:
 1496 095c 4FF48073 		mov	r3, #256
 1497 0960 09E0     		b	.L178
 1498              	.L435:
 1499 0962 4FF48073 		mov	r3, #256
 1500 0966 06E0     		b	.L178
 1501              	.L434:
 1502 0968 0423     		movs	r3, #4
 1503 096a 04E0     		b	.L178
 1504              	.L433:
 1505 096c 0423     		movs	r3, #4
 1506 096e 02E0     		b	.L178
 1507              	.L432:
 1508 0970 0423     		movs	r3, #4
 1509 0972 00E0     		b	.L178
 1510              	.L431:
 1511 0974 0423     		movs	r3, #4
 1512              	.L178:
 216:Drivers/STM32F4xx_HAL_Driver/Src/stm32f4xx_hal_dma_ex.c ****     __HAL_DMA_CLEAR_FLAG (hdma, __HAL_DMA_GET_FE_FLAG_INDEX(hdma));
 1513              		.loc 1 216 0 discriminator 50
 1514 0976 824A     		ldr	r2, .L534+8
 1515 0978 D360     		str	r3, [r2, #12]
ARM GAS  /tmp/ccYYUFl4.s 			page 37


 1516 097a 0CE1     		b	.L190
 1517              	.L177:
 216:Drivers/STM32F4xx_HAL_Driver/Src/stm32f4xx_hal_dma_ex.c ****     __HAL_DMA_CLEAR_FLAG (hdma, __HAL_DMA_GET_FE_FLAG_INDEX(hdma));
 1518              		.loc 1 216 0 discriminator 2
 1519 097c 814A     		ldr	r2, .L534+12
 1520 097e 9342     		cmp	r3, r2
 1521 0980 53D9     		bls	.L191
 216:Drivers/STM32F4xx_HAL_Driver/Src/stm32f4xx_hal_dma_ex.c ****     __HAL_DMA_CLEAR_FLAG (hdma, __HAL_DMA_GET_FE_FLAG_INDEX(hdma));
 1522              		.loc 1 216 0 discriminator 51
 1523 0982 A83A     		subs	r2, r2, #168
 1524 0984 9342     		cmp	r3, r2
 1525 0986 4CD0     		beq	.L443
 216:Drivers/STM32F4xx_HAL_Driver/Src/stm32f4xx_hal_dma_ex.c ****     __HAL_DMA_CLEAR_FLAG (hdma, __HAL_DMA_GET_FE_FLAG_INDEX(hdma));
 1526              		.loc 1 216 0 discriminator 53
 1527 0988 02F58062 		add	r2, r2, #1024
 1528 098c 9342     		cmp	r3, r2
 1529 098e 46D0     		beq	.L444
 216:Drivers/STM32F4xx_HAL_Driver/Src/stm32f4xx_hal_dma_ex.c ****     __HAL_DMA_CLEAR_FLAG (hdma, __HAL_DMA_GET_FE_FLAG_INDEX(hdma));
 1530              		.loc 1 216 0 discriminator 55
 1531 0990 A2F56872 		sub	r2, r2, #928
 1532 0994 9342     		cmp	r3, r2
 1533 0996 40D0     		beq	.L445
 216:Drivers/STM32F4xx_HAL_Driver/Src/stm32f4xx_hal_dma_ex.c ****     __HAL_DMA_CLEAR_FLAG (hdma, __HAL_DMA_GET_FE_FLAG_INDEX(hdma));
 1534              		.loc 1 216 0 discriminator 57
 1535 0998 02F58062 		add	r2, r2, #1024
 1536 099c 9342     		cmp	r3, r2
 1537 099e 3AD0     		beq	.L446
 216:Drivers/STM32F4xx_HAL_Driver/Src/stm32f4xx_hal_dma_ex.c ****     __HAL_DMA_CLEAR_FLAG (hdma, __HAL_DMA_GET_FE_FLAG_INDEX(hdma));
 1538              		.loc 1 216 0 discriminator 59
 1539 09a0 A2F58962 		sub	r2, r2, #1096
 1540 09a4 9342     		cmp	r3, r2
 1541 09a6 33D0     		beq	.L447
 216:Drivers/STM32F4xx_HAL_Driver/Src/stm32f4xx_hal_dma_ex.c ****     __HAL_DMA_CLEAR_FLAG (hdma, __HAL_DMA_GET_FE_FLAG_INDEX(hdma));
 1542              		.loc 1 216 0 discriminator 61
 1543 09a8 02F58062 		add	r2, r2, #1024
 1544 09ac 9342     		cmp	r3, r2
 1545 09ae 2CD0     		beq	.L448
 216:Drivers/STM32F4xx_HAL_Driver/Src/stm32f4xx_hal_dma_ex.c ****     __HAL_DMA_CLEAR_FLAG (hdma, __HAL_DMA_GET_FE_FLAG_INDEX(hdma));
 1546              		.loc 1 216 0 discriminator 63
 1547 09b0 A2F56872 		sub	r2, r2, #928
 1548 09b4 9342     		cmp	r3, r2
 1549 09b6 25D0     		beq	.L449
 216:Drivers/STM32F4xx_HAL_Driver/Src/stm32f4xx_hal_dma_ex.c ****     __HAL_DMA_CLEAR_FLAG (hdma, __HAL_DMA_GET_FE_FLAG_INDEX(hdma));
 1550              		.loc 1 216 0 discriminator 65
 1551 09b8 02F58062 		add	r2, r2, #1024
 1552 09bc 9342     		cmp	r3, r2
 1553 09be 1ED0     		beq	.L450
 216:Drivers/STM32F4xx_HAL_Driver/Src/stm32f4xx_hal_dma_ex.c ****     __HAL_DMA_CLEAR_FLAG (hdma, __HAL_DMA_GET_FE_FLAG_INDEX(hdma));
 1554              		.loc 1 216 0 discriminator 67
 1555 09c0 A2F58962 		sub	r2, r2, #1096
 1556 09c4 9342     		cmp	r3, r2
 1557 09c6 17D0     		beq	.L451
 216:Drivers/STM32F4xx_HAL_Driver/Src/stm32f4xx_hal_dma_ex.c ****     __HAL_DMA_CLEAR_FLAG (hdma, __HAL_DMA_GET_FE_FLAG_INDEX(hdma));
 1558              		.loc 1 216 0 discriminator 69
 1559 09c8 02F58062 		add	r2, r2, #1024
 1560 09cc 9342     		cmp	r3, r2
 1561 09ce 10D0     		beq	.L452
ARM GAS  /tmp/ccYYUFl4.s 			page 38


 216:Drivers/STM32F4xx_HAL_Driver/Src/stm32f4xx_hal_dma_ex.c ****     __HAL_DMA_CLEAR_FLAG (hdma, __HAL_DMA_GET_FE_FLAG_INDEX(hdma));
 1562              		.loc 1 216 0 discriminator 71
 1563 09d0 A2F56872 		sub	r2, r2, #928
 1564 09d4 9342     		cmp	r3, r2
 1565 09d6 09D0     		beq	.L453
 216:Drivers/STM32F4xx_HAL_Driver/Src/stm32f4xx_hal_dma_ex.c ****     __HAL_DMA_CLEAR_FLAG (hdma, __HAL_DMA_GET_FE_FLAG_INDEX(hdma));
 1566              		.loc 1 216 0 discriminator 73
 1567 09d8 02F58062 		add	r2, r2, #1024
 1568 09dc 9342     		cmp	r3, r2
 1569 09de 02D1     		bne	.L454
 216:Drivers/STM32F4xx_HAL_Driver/Src/stm32f4xx_hal_dma_ex.c ****     __HAL_DMA_CLEAR_FLAG (hdma, __HAL_DMA_GET_FE_FLAG_INDEX(hdma));
 1570              		.loc 1 216 0
 1571 09e0 4FF48023 		mov	r3, #262144
 1572 09e4 1EE0     		b	.L192
 1573              	.L454:
 1574 09e6 4FF08073 		mov	r3, #16777216
 1575 09ea 1BE0     		b	.L192
 1576              	.L453:
 1577 09ec 4FF48023 		mov	r3, #262144
 1578 09f0 18E0     		b	.L192
 1579              	.L452:
 1580 09f2 4FF48023 		mov	r3, #262144
 1581 09f6 15E0     		b	.L192
 1582              	.L451:
 1583 09f8 4FF48023 		mov	r3, #262144
 1584 09fc 12E0     		b	.L192
 1585              	.L450:
 1586 09fe 4FF48073 		mov	r3, #256
 1587 0a02 0FE0     		b	.L192
 1588              	.L449:
 1589 0a04 4FF48073 		mov	r3, #256
 1590 0a08 0CE0     		b	.L192
 1591              	.L448:
 1592 0a0a 4FF48073 		mov	r3, #256
 1593 0a0e 09E0     		b	.L192
 1594              	.L447:
 1595 0a10 4FF48073 		mov	r3, #256
 1596 0a14 06E0     		b	.L192
 1597              	.L446:
 1598 0a16 0423     		movs	r3, #4
 1599 0a18 04E0     		b	.L192
 1600              	.L445:
 1601 0a1a 0423     		movs	r3, #4
 1602 0a1c 02E0     		b	.L192
 1603              	.L444:
 1604 0a1e 0423     		movs	r3, #4
 1605 0a20 00E0     		b	.L192
 1606              	.L443:
 1607 0a22 0423     		movs	r3, #4
 1608              	.L192:
 216:Drivers/STM32F4xx_HAL_Driver/Src/stm32f4xx_hal_dma_ex.c ****     __HAL_DMA_CLEAR_FLAG (hdma, __HAL_DMA_GET_FE_FLAG_INDEX(hdma));
 1609              		.loc 1 216 0 discriminator 100
 1610 0a24 564A     		ldr	r2, .L534+8
 1611 0a26 9360     		str	r3, [r2, #8]
 1612 0a28 B5E0     		b	.L190
 1613              	.L191:
 216:Drivers/STM32F4xx_HAL_Driver/Src/stm32f4xx_hal_dma_ex.c ****     __HAL_DMA_CLEAR_FLAG (hdma, __HAL_DMA_GET_FE_FLAG_INDEX(hdma));
ARM GAS  /tmp/ccYYUFl4.s 			page 39


 1614              		.loc 1 216 0 discriminator 52
 1615 0a2a 574A     		ldr	r2, .L534+16
 1616 0a2c 9342     		cmp	r3, r2
 1617 0a2e 53D9     		bls	.L204
 216:Drivers/STM32F4xx_HAL_Driver/Src/stm32f4xx_hal_dma_ex.c ****     __HAL_DMA_CLEAR_FLAG (hdma, __HAL_DMA_GET_FE_FLAG_INDEX(hdma));
 1618              		.loc 1 216 0 discriminator 102
 1619 0a30 483A     		subs	r2, r2, #72
 1620 0a32 9342     		cmp	r3, r2
 1621 0a34 4CD0     		beq	.L455
 216:Drivers/STM32F4xx_HAL_Driver/Src/stm32f4xx_hal_dma_ex.c ****     __HAL_DMA_CLEAR_FLAG (hdma, __HAL_DMA_GET_FE_FLAG_INDEX(hdma));
 1622              		.loc 1 216 0 discriminator 104
 1623 0a36 02F58062 		add	r2, r2, #1024
 1624 0a3a 9342     		cmp	r3, r2
 1625 0a3c 46D0     		beq	.L456
 216:Drivers/STM32F4xx_HAL_Driver/Src/stm32f4xx_hal_dma_ex.c ****     __HAL_DMA_CLEAR_FLAG (hdma, __HAL_DMA_GET_FE_FLAG_INDEX(hdma));
 1626              		.loc 1 216 0 discriminator 106
 1627 0a3e A2F56872 		sub	r2, r2, #928
 1628 0a42 9342     		cmp	r3, r2
 1629 0a44 40D0     		beq	.L457
 216:Drivers/STM32F4xx_HAL_Driver/Src/stm32f4xx_hal_dma_ex.c ****     __HAL_DMA_CLEAR_FLAG (hdma, __HAL_DMA_GET_FE_FLAG_INDEX(hdma));
 1630              		.loc 1 216 0 discriminator 108
 1631 0a46 02F58062 		add	r2, r2, #1024
 1632 0a4a 9342     		cmp	r3, r2
 1633 0a4c 3AD0     		beq	.L458
 216:Drivers/STM32F4xx_HAL_Driver/Src/stm32f4xx_hal_dma_ex.c ****     __HAL_DMA_CLEAR_FLAG (hdma, __HAL_DMA_GET_FE_FLAG_INDEX(hdma));
 1634              		.loc 1 216 0 discriminator 110
 1635 0a4e A2F58962 		sub	r2, r2, #1096
 1636 0a52 9342     		cmp	r3, r2
 1637 0a54 33D0     		beq	.L459
 216:Drivers/STM32F4xx_HAL_Driver/Src/stm32f4xx_hal_dma_ex.c ****     __HAL_DMA_CLEAR_FLAG (hdma, __HAL_DMA_GET_FE_FLAG_INDEX(hdma));
 1638              		.loc 1 216 0 discriminator 112
 1639 0a56 02F58062 		add	r2, r2, #1024
 1640 0a5a 9342     		cmp	r3, r2
 1641 0a5c 2CD0     		beq	.L460
 216:Drivers/STM32F4xx_HAL_Driver/Src/stm32f4xx_hal_dma_ex.c ****     __HAL_DMA_CLEAR_FLAG (hdma, __HAL_DMA_GET_FE_FLAG_INDEX(hdma));
 1642              		.loc 1 216 0 discriminator 114
 1643 0a5e A2F56872 		sub	r2, r2, #928
 1644 0a62 9342     		cmp	r3, r2
 1645 0a64 25D0     		beq	.L461
 216:Drivers/STM32F4xx_HAL_Driver/Src/stm32f4xx_hal_dma_ex.c ****     __HAL_DMA_CLEAR_FLAG (hdma, __HAL_DMA_GET_FE_FLAG_INDEX(hdma));
 1646              		.loc 1 216 0 discriminator 116
 1647 0a66 02F58062 		add	r2, r2, #1024
 1648 0a6a 9342     		cmp	r3, r2
 1649 0a6c 1ED0     		beq	.L462
 216:Drivers/STM32F4xx_HAL_Driver/Src/stm32f4xx_hal_dma_ex.c ****     __HAL_DMA_CLEAR_FLAG (hdma, __HAL_DMA_GET_FE_FLAG_INDEX(hdma));
 1650              		.loc 1 216 0 discriminator 118
 1651 0a6e A2F58962 		sub	r2, r2, #1096
 1652 0a72 9342     		cmp	r3, r2
 1653 0a74 17D0     		beq	.L463
 216:Drivers/STM32F4xx_HAL_Driver/Src/stm32f4xx_hal_dma_ex.c ****     __HAL_DMA_CLEAR_FLAG (hdma, __HAL_DMA_GET_FE_FLAG_INDEX(hdma));
 1654              		.loc 1 216 0 discriminator 120
 1655 0a76 02F58062 		add	r2, r2, #1024
 1656 0a7a 9342     		cmp	r3, r2
 1657 0a7c 10D0     		beq	.L464
 216:Drivers/STM32F4xx_HAL_Driver/Src/stm32f4xx_hal_dma_ex.c ****     __HAL_DMA_CLEAR_FLAG (hdma, __HAL_DMA_GET_FE_FLAG_INDEX(hdma));
 1658              		.loc 1 216 0 discriminator 122
 1659 0a7e A2F56872 		sub	r2, r2, #928
ARM GAS  /tmp/ccYYUFl4.s 			page 40


 1660 0a82 9342     		cmp	r3, r2
 1661 0a84 09D0     		beq	.L465
 216:Drivers/STM32F4xx_HAL_Driver/Src/stm32f4xx_hal_dma_ex.c ****     __HAL_DMA_CLEAR_FLAG (hdma, __HAL_DMA_GET_FE_FLAG_INDEX(hdma));
 1662              		.loc 1 216 0 discriminator 124
 1663 0a86 02F58062 		add	r2, r2, #1024
 1664 0a8a 9342     		cmp	r3, r2
 1665 0a8c 02D1     		bne	.L466
 216:Drivers/STM32F4xx_HAL_Driver/Src/stm32f4xx_hal_dma_ex.c ****     __HAL_DMA_CLEAR_FLAG (hdma, __HAL_DMA_GET_FE_FLAG_INDEX(hdma));
 1666              		.loc 1 216 0
 1667 0a8e 4FF48023 		mov	r3, #262144
 1668 0a92 1EE0     		b	.L205
 1669              	.L466:
 1670 0a94 4FF08073 		mov	r3, #16777216
 1671 0a98 1BE0     		b	.L205
 1672              	.L465:
 1673 0a9a 4FF48023 		mov	r3, #262144
 1674 0a9e 18E0     		b	.L205
 1675              	.L464:
 1676 0aa0 4FF48023 		mov	r3, #262144
 1677 0aa4 15E0     		b	.L205
 1678              	.L463:
 1679 0aa6 4FF48023 		mov	r3, #262144
 1680 0aaa 12E0     		b	.L205
 1681              	.L462:
 1682 0aac 4FF48073 		mov	r3, #256
 1683 0ab0 0FE0     		b	.L205
 1684              	.L461:
 1685 0ab2 4FF48073 		mov	r3, #256
 1686 0ab6 0CE0     		b	.L205
 1687              	.L460:
 1688 0ab8 4FF48073 		mov	r3, #256
 1689 0abc 09E0     		b	.L205
 1690              	.L459:
 1691 0abe 4FF48073 		mov	r3, #256
 1692 0ac2 06E0     		b	.L205
 1693              	.L458:
 1694 0ac4 0423     		movs	r3, #4
 1695 0ac6 04E0     		b	.L205
 1696              	.L457:
 1697 0ac8 0423     		movs	r3, #4
 1698 0aca 02E0     		b	.L205
 1699              	.L456:
 1700 0acc 0423     		movs	r3, #4
 1701 0ace 00E0     		b	.L205
 1702              	.L455:
 1703 0ad0 0423     		movs	r3, #4
 1704              	.L205:
 216:Drivers/STM32F4xx_HAL_Driver/Src/stm32f4xx_hal_dma_ex.c ****     __HAL_DMA_CLEAR_FLAG (hdma, __HAL_DMA_GET_FE_FLAG_INDEX(hdma));
 1705              		.loc 1 216 0 discriminator 151
 1706 0ad2 294A     		ldr	r2, .L534
 1707 0ad4 D360     		str	r3, [r2, #12]
 1708 0ad6 5EE0     		b	.L190
 1709              	.L204:
 216:Drivers/STM32F4xx_HAL_Driver/Src/stm32f4xx_hal_dma_ex.c ****     __HAL_DMA_CLEAR_FLAG (hdma, __HAL_DMA_GET_FE_FLAG_INDEX(hdma));
 1710              		.loc 1 216 0 discriminator 103
 1711 0ad8 2C4A     		ldr	r2, .L534+20
 1712 0ada 9342     		cmp	r3, r2
ARM GAS  /tmp/ccYYUFl4.s 			page 41


 1713 0adc 58D0     		beq	.L467
 216:Drivers/STM32F4xx_HAL_Driver/Src/stm32f4xx_hal_dma_ex.c ****     __HAL_DMA_CLEAR_FLAG (hdma, __HAL_DMA_GET_FE_FLAG_INDEX(hdma));
 1714              		.loc 1 216 0 discriminator 153
 1715 0ade 02F58062 		add	r2, r2, #1024
 1716 0ae2 9342     		cmp	r3, r2
 1717 0ae4 46D0     		beq	.L468
 216:Drivers/STM32F4xx_HAL_Driver/Src/stm32f4xx_hal_dma_ex.c ****     __HAL_DMA_CLEAR_FLAG (hdma, __HAL_DMA_GET_FE_FLAG_INDEX(hdma));
 1718              		.loc 1 216 0 discriminator 155
 1719 0ae6 A2F56872 		sub	r2, r2, #928
 1720 0aea 9342     		cmp	r3, r2
 1721 0aec 40D0     		beq	.L469
 216:Drivers/STM32F4xx_HAL_Driver/Src/stm32f4xx_hal_dma_ex.c ****     __HAL_DMA_CLEAR_FLAG (hdma, __HAL_DMA_GET_FE_FLAG_INDEX(hdma));
 1722              		.loc 1 216 0 discriminator 157
 1723 0aee 02F58062 		add	r2, r2, #1024
 1724 0af2 9342     		cmp	r3, r2
 1725 0af4 3AD0     		beq	.L470
 216:Drivers/STM32F4xx_HAL_Driver/Src/stm32f4xx_hal_dma_ex.c ****     __HAL_DMA_CLEAR_FLAG (hdma, __HAL_DMA_GET_FE_FLAG_INDEX(hdma));
 1726              		.loc 1 216 0 discriminator 159
 1727 0af6 A2F58962 		sub	r2, r2, #1096
 1728 0afa 9342     		cmp	r3, r2
 1729 0afc 33D0     		beq	.L471
 216:Drivers/STM32F4xx_HAL_Driver/Src/stm32f4xx_hal_dma_ex.c ****     __HAL_DMA_CLEAR_FLAG (hdma, __HAL_DMA_GET_FE_FLAG_INDEX(hdma));
 1730              		.loc 1 216 0 discriminator 161
 1731 0afe 02F58062 		add	r2, r2, #1024
 1732 0b02 9342     		cmp	r3, r2
 1733 0b04 2CD0     		beq	.L472
 216:Drivers/STM32F4xx_HAL_Driver/Src/stm32f4xx_hal_dma_ex.c ****     __HAL_DMA_CLEAR_FLAG (hdma, __HAL_DMA_GET_FE_FLAG_INDEX(hdma));
 1734              		.loc 1 216 0 discriminator 163
 1735 0b06 A2F56872 		sub	r2, r2, #928
 1736 0b0a 9342     		cmp	r3, r2
 1737 0b0c 25D0     		beq	.L473
 216:Drivers/STM32F4xx_HAL_Driver/Src/stm32f4xx_hal_dma_ex.c ****     __HAL_DMA_CLEAR_FLAG (hdma, __HAL_DMA_GET_FE_FLAG_INDEX(hdma));
 1738              		.loc 1 216 0 discriminator 165
 1739 0b0e 02F58062 		add	r2, r2, #1024
 1740 0b12 9342     		cmp	r3, r2
 1741 0b14 1ED0     		beq	.L474
 216:Drivers/STM32F4xx_HAL_Driver/Src/stm32f4xx_hal_dma_ex.c ****     __HAL_DMA_CLEAR_FLAG (hdma, __HAL_DMA_GET_FE_FLAG_INDEX(hdma));
 1742              		.loc 1 216 0 discriminator 167
 1743 0b16 A2F58962 		sub	r2, r2, #1096
 1744 0b1a 9342     		cmp	r3, r2
 1745 0b1c 17D0     		beq	.L475
 216:Drivers/STM32F4xx_HAL_Driver/Src/stm32f4xx_hal_dma_ex.c ****     __HAL_DMA_CLEAR_FLAG (hdma, __HAL_DMA_GET_FE_FLAG_INDEX(hdma));
 1746              		.loc 1 216 0 discriminator 169
 1747 0b1e 02F58062 		add	r2, r2, #1024
 1748 0b22 9342     		cmp	r3, r2
 1749 0b24 10D0     		beq	.L476
 216:Drivers/STM32F4xx_HAL_Driver/Src/stm32f4xx_hal_dma_ex.c ****     __HAL_DMA_CLEAR_FLAG (hdma, __HAL_DMA_GET_FE_FLAG_INDEX(hdma));
 1750              		.loc 1 216 0 discriminator 171
 1751 0b26 A2F56872 		sub	r2, r2, #928
 1752 0b2a 9342     		cmp	r3, r2
 1753 0b2c 09D0     		beq	.L477
 216:Drivers/STM32F4xx_HAL_Driver/Src/stm32f4xx_hal_dma_ex.c ****     __HAL_DMA_CLEAR_FLAG (hdma, __HAL_DMA_GET_FE_FLAG_INDEX(hdma));
 1754              		.loc 1 216 0 discriminator 173
 1755 0b2e 02F58062 		add	r2, r2, #1024
 1756 0b32 9342     		cmp	r3, r2
 1757 0b34 02D1     		bne	.L478
 216:Drivers/STM32F4xx_HAL_Driver/Src/stm32f4xx_hal_dma_ex.c ****     __HAL_DMA_CLEAR_FLAG (hdma, __HAL_DMA_GET_FE_FLAG_INDEX(hdma));
ARM GAS  /tmp/ccYYUFl4.s 			page 42


 1758              		.loc 1 216 0
 1759 0b36 4FF48023 		mov	r3, #262144
 1760 0b3a 2AE0     		b	.L218
 1761              	.L478:
 1762 0b3c 4FF08073 		mov	r3, #16777216
 1763 0b40 27E0     		b	.L218
 1764              	.L477:
 1765 0b42 4FF48023 		mov	r3, #262144
 1766 0b46 24E0     		b	.L218
 1767              	.L476:
 1768 0b48 4FF48023 		mov	r3, #262144
 1769 0b4c 21E0     		b	.L218
 1770              	.L475:
 1771 0b4e 4FF48023 		mov	r3, #262144
 1772 0b52 1EE0     		b	.L218
 1773              	.L474:
 1774 0b54 4FF48073 		mov	r3, #256
 1775 0b58 1BE0     		b	.L218
 1776              	.L473:
 1777 0b5a 4FF48073 		mov	r3, #256
 1778 0b5e 18E0     		b	.L218
 1779              	.L472:
 1780 0b60 4FF48073 		mov	r3, #256
 1781 0b64 15E0     		b	.L218
 1782              	.L471:
 1783 0b66 4FF48073 		mov	r3, #256
 1784 0b6a 12E0     		b	.L218
 1785              	.L470:
 1786 0b6c 0423     		movs	r3, #4
 1787 0b6e 10E0     		b	.L218
 1788              	.L469:
 1789 0b70 0423     		movs	r3, #4
 1790 0b72 0EE0     		b	.L218
 1791              	.L468:
 1792 0b74 0423     		movs	r3, #4
 1793 0b76 0CE0     		b	.L218
 1794              	.L535:
 1795              		.align	2
 1796              	.L534:
 1797 0b78 00600240 		.word	1073897472
 1798 0b7c 58640240 		.word	1073898584
 1799 0b80 00640240 		.word	1073898496
 1800 0b84 B8600240 		.word	1073897656
 1801 0b88 58600240 		.word	1073897560
 1802 0b8c 10600240 		.word	1073897488
 1803              	.L467:
 1804 0b90 0423     		movs	r3, #4
 1805              	.L218:
 216:Drivers/STM32F4xx_HAL_Driver/Src/stm32f4xx_hal_dma_ex.c ****     __HAL_DMA_CLEAR_FLAG (hdma, __HAL_DMA_GET_FE_FLAG_INDEX(hdma));
 1806              		.loc 1 216 0 discriminator 200
 1807 0b92 B64A     		ldr	r2, .L536
 1808 0b94 9360     		str	r3, [r2, #8]
 1809              	.L190:
 217:Drivers/STM32F4xx_HAL_Driver/Src/stm32f4xx_hal_dma_ex.c **** 
 1810              		.loc 1 217 0 is_stmt 1
 1811 0b96 2368     		ldr	r3, [r4]
 1812 0b98 B54A     		ldr	r2, .L536+4
ARM GAS  /tmp/ccYYUFl4.s 			page 43


 1813 0b9a 9342     		cmp	r3, r2
 1814 0b9c 50D9     		bls	.L230
 217:Drivers/STM32F4xx_HAL_Driver/Src/stm32f4xx_hal_dma_ex.c **** 
 1815              		.loc 1 217 0 is_stmt 0 discriminator 1
 1816 0b9e A2F58962 		sub	r2, r2, #1096
 1817 0ba2 9342     		cmp	r3, r2
 1818 0ba4 48D0     		beq	.L479
 217:Drivers/STM32F4xx_HAL_Driver/Src/stm32f4xx_hal_dma_ex.c **** 
 1819              		.loc 1 217 0 discriminator 3
 1820 0ba6 02F58062 		add	r2, r2, #1024
 1821 0baa 9342     		cmp	r3, r2
 1822 0bac 42D0     		beq	.L480
 217:Drivers/STM32F4xx_HAL_Driver/Src/stm32f4xx_hal_dma_ex.c **** 
 1823              		.loc 1 217 0 discriminator 5
 1824 0bae A2F56872 		sub	r2, r2, #928
 1825 0bb2 9342     		cmp	r3, r2
 1826 0bb4 3CD0     		beq	.L481
 217:Drivers/STM32F4xx_HAL_Driver/Src/stm32f4xx_hal_dma_ex.c **** 
 1827              		.loc 1 217 0 discriminator 7
 1828 0bb6 02F58062 		add	r2, r2, #1024
 1829 0bba 9342     		cmp	r3, r2
 1830 0bbc 36D0     		beq	.L482
 217:Drivers/STM32F4xx_HAL_Driver/Src/stm32f4xx_hal_dma_ex.c **** 
 1831              		.loc 1 217 0 discriminator 9
 1832 0bbe A2F58962 		sub	r2, r2, #1096
 1833 0bc2 9342     		cmp	r3, r2
 1834 0bc4 30D0     		beq	.L483
 217:Drivers/STM32F4xx_HAL_Driver/Src/stm32f4xx_hal_dma_ex.c **** 
 1835              		.loc 1 217 0 discriminator 11
 1836 0bc6 02F58062 		add	r2, r2, #1024
 1837 0bca 9342     		cmp	r3, r2
 1838 0bcc 2AD0     		beq	.L484
 217:Drivers/STM32F4xx_HAL_Driver/Src/stm32f4xx_hal_dma_ex.c **** 
 1839              		.loc 1 217 0 discriminator 13
 1840 0bce A2F56872 		sub	r2, r2, #928
 1841 0bd2 9342     		cmp	r3, r2
 1842 0bd4 24D0     		beq	.L485
 217:Drivers/STM32F4xx_HAL_Driver/Src/stm32f4xx_hal_dma_ex.c **** 
 1843              		.loc 1 217 0 discriminator 15
 1844 0bd6 02F58062 		add	r2, r2, #1024
 1845 0bda 9342     		cmp	r3, r2
 1846 0bdc 1ED0     		beq	.L486
 217:Drivers/STM32F4xx_HAL_Driver/Src/stm32f4xx_hal_dma_ex.c **** 
 1847              		.loc 1 217 0 discriminator 17
 1848 0bde A2F58962 		sub	r2, r2, #1096
 1849 0be2 9342     		cmp	r3, r2
 1850 0be4 17D0     		beq	.L487
 217:Drivers/STM32F4xx_HAL_Driver/Src/stm32f4xx_hal_dma_ex.c **** 
 1851              		.loc 1 217 0 discriminator 19
 1852 0be6 02F58062 		add	r2, r2, #1024
 1853 0bea 9342     		cmp	r3, r2
 1854 0bec 10D0     		beq	.L488
 217:Drivers/STM32F4xx_HAL_Driver/Src/stm32f4xx_hal_dma_ex.c **** 
 1855              		.loc 1 217 0 discriminator 21
 1856 0bee A2F56872 		sub	r2, r2, #928
 1857 0bf2 9342     		cmp	r3, r2
 1858 0bf4 09D0     		beq	.L489
ARM GAS  /tmp/ccYYUFl4.s 			page 44


 217:Drivers/STM32F4xx_HAL_Driver/Src/stm32f4xx_hal_dma_ex.c **** 
 1859              		.loc 1 217 0 discriminator 23
 1860 0bf6 02F58062 		add	r2, r2, #1024
 1861 0bfa 9342     		cmp	r3, r2
 1862 0bfc 02D1     		bne	.L490
 217:Drivers/STM32F4xx_HAL_Driver/Src/stm32f4xx_hal_dma_ex.c **** 
 1863              		.loc 1 217 0
 1864 0bfe 4FF48033 		mov	r3, #65536
 1865 0c02 1AE0     		b	.L231
 1866              	.L490:
 1867 0c04 4FF48003 		mov	r3, #4194304
 1868 0c08 17E0     		b	.L231
 1869              	.L489:
 1870 0c0a 4FF48033 		mov	r3, #65536
 1871 0c0e 14E0     		b	.L231
 1872              	.L488:
 1873 0c10 4FF48033 		mov	r3, #65536
 1874 0c14 11E0     		b	.L231
 1875              	.L487:
 1876 0c16 4FF48033 		mov	r3, #65536
 1877 0c1a 0EE0     		b	.L231
 1878              	.L486:
 1879 0c1c 4023     		movs	r3, #64
 1880 0c1e 0CE0     		b	.L231
 1881              	.L485:
 1882 0c20 4023     		movs	r3, #64
 1883 0c22 0AE0     		b	.L231
 1884              	.L484:
 1885 0c24 4023     		movs	r3, #64
 1886 0c26 08E0     		b	.L231
 1887              	.L483:
 1888 0c28 4023     		movs	r3, #64
 1889 0c2a 06E0     		b	.L231
 1890              	.L482:
 1891 0c2c 0123     		movs	r3, #1
 1892 0c2e 04E0     		b	.L231
 1893              	.L481:
 1894 0c30 0123     		movs	r3, #1
 1895 0c32 02E0     		b	.L231
 1896              	.L480:
 1897 0c34 0123     		movs	r3, #1
 1898 0c36 00E0     		b	.L231
 1899              	.L479:
 1900 0c38 0123     		movs	r3, #1
 1901              	.L231:
 217:Drivers/STM32F4xx_HAL_Driver/Src/stm32f4xx_hal_dma_ex.c **** 
 1902              		.loc 1 217 0 discriminator 50
 1903 0c3a 8E4A     		ldr	r2, .L536+8
 1904 0c3c D360     		str	r3, [r2, #12]
 1905 0c3e F4E0     		b	.L243
 1906              	.L230:
 217:Drivers/STM32F4xx_HAL_Driver/Src/stm32f4xx_hal_dma_ex.c **** 
 1907              		.loc 1 217 0 discriminator 2
 1908 0c40 8D4A     		ldr	r2, .L536+12
 1909 0c42 9342     		cmp	r3, r2
 1910 0c44 4FD9     		bls	.L244
 217:Drivers/STM32F4xx_HAL_Driver/Src/stm32f4xx_hal_dma_ex.c **** 
ARM GAS  /tmp/ccYYUFl4.s 			page 45


 1911              		.loc 1 217 0 discriminator 51
 1912 0c46 A83A     		subs	r2, r2, #168
 1913 0c48 9342     		cmp	r3, r2
 1914 0c4a 48D0     		beq	.L491
 217:Drivers/STM32F4xx_HAL_Driver/Src/stm32f4xx_hal_dma_ex.c **** 
 1915              		.loc 1 217 0 discriminator 53
 1916 0c4c 02F58062 		add	r2, r2, #1024
 1917 0c50 9342     		cmp	r3, r2
 1918 0c52 42D0     		beq	.L492
 217:Drivers/STM32F4xx_HAL_Driver/Src/stm32f4xx_hal_dma_ex.c **** 
 1919              		.loc 1 217 0 discriminator 55
 1920 0c54 A2F56872 		sub	r2, r2, #928
 1921 0c58 9342     		cmp	r3, r2
 1922 0c5a 3CD0     		beq	.L493
 217:Drivers/STM32F4xx_HAL_Driver/Src/stm32f4xx_hal_dma_ex.c **** 
 1923              		.loc 1 217 0 discriminator 57
 1924 0c5c 02F58062 		add	r2, r2, #1024
 1925 0c60 9342     		cmp	r3, r2
 1926 0c62 36D0     		beq	.L494
 217:Drivers/STM32F4xx_HAL_Driver/Src/stm32f4xx_hal_dma_ex.c **** 
 1927              		.loc 1 217 0 discriminator 59
 1928 0c64 A2F58962 		sub	r2, r2, #1096
 1929 0c68 9342     		cmp	r3, r2
 1930 0c6a 30D0     		beq	.L495
 217:Drivers/STM32F4xx_HAL_Driver/Src/stm32f4xx_hal_dma_ex.c **** 
 1931              		.loc 1 217 0 discriminator 61
 1932 0c6c 02F58062 		add	r2, r2, #1024
 1933 0c70 9342     		cmp	r3, r2
 1934 0c72 2AD0     		beq	.L496
 217:Drivers/STM32F4xx_HAL_Driver/Src/stm32f4xx_hal_dma_ex.c **** 
 1935              		.loc 1 217 0 discriminator 63
 1936 0c74 A2F56872 		sub	r2, r2, #928
 1937 0c78 9342     		cmp	r3, r2
 1938 0c7a 24D0     		beq	.L497
 217:Drivers/STM32F4xx_HAL_Driver/Src/stm32f4xx_hal_dma_ex.c **** 
 1939              		.loc 1 217 0 discriminator 65
 1940 0c7c 02F58062 		add	r2, r2, #1024
 1941 0c80 9342     		cmp	r3, r2
 1942 0c82 1ED0     		beq	.L498
 217:Drivers/STM32F4xx_HAL_Driver/Src/stm32f4xx_hal_dma_ex.c **** 
 1943              		.loc 1 217 0 discriminator 67
 1944 0c84 A2F58962 		sub	r2, r2, #1096
 1945 0c88 9342     		cmp	r3, r2
 1946 0c8a 17D0     		beq	.L499
 217:Drivers/STM32F4xx_HAL_Driver/Src/stm32f4xx_hal_dma_ex.c **** 
 1947              		.loc 1 217 0 discriminator 69
 1948 0c8c 02F58062 		add	r2, r2, #1024
 1949 0c90 9342     		cmp	r3, r2
 1950 0c92 10D0     		beq	.L500
 217:Drivers/STM32F4xx_HAL_Driver/Src/stm32f4xx_hal_dma_ex.c **** 
 1951              		.loc 1 217 0 discriminator 71
 1952 0c94 A2F56872 		sub	r2, r2, #928
 1953 0c98 9342     		cmp	r3, r2
 1954 0c9a 09D0     		beq	.L501
 217:Drivers/STM32F4xx_HAL_Driver/Src/stm32f4xx_hal_dma_ex.c **** 
 1955              		.loc 1 217 0 discriminator 73
 1956 0c9c 02F58062 		add	r2, r2, #1024
ARM GAS  /tmp/ccYYUFl4.s 			page 46


 1957 0ca0 9342     		cmp	r3, r2
 1958 0ca2 02D1     		bne	.L502
 217:Drivers/STM32F4xx_HAL_Driver/Src/stm32f4xx_hal_dma_ex.c **** 
 1959              		.loc 1 217 0
 1960 0ca4 4FF48033 		mov	r3, #65536
 1961 0ca8 1AE0     		b	.L245
 1962              	.L502:
 1963 0caa 4FF48003 		mov	r3, #4194304
 1964 0cae 17E0     		b	.L245
 1965              	.L501:
 1966 0cb0 4FF48033 		mov	r3, #65536
 1967 0cb4 14E0     		b	.L245
 1968              	.L500:
 1969 0cb6 4FF48033 		mov	r3, #65536
 1970 0cba 11E0     		b	.L245
 1971              	.L499:
 1972 0cbc 4FF48033 		mov	r3, #65536
 1973 0cc0 0EE0     		b	.L245
 1974              	.L498:
 1975 0cc2 4023     		movs	r3, #64
 1976 0cc4 0CE0     		b	.L245
 1977              	.L497:
 1978 0cc6 4023     		movs	r3, #64
 1979 0cc8 0AE0     		b	.L245
 1980              	.L496:
 1981 0cca 4023     		movs	r3, #64
 1982 0ccc 08E0     		b	.L245
 1983              	.L495:
 1984 0cce 4023     		movs	r3, #64
 1985 0cd0 06E0     		b	.L245
 1986              	.L494:
 1987 0cd2 0123     		movs	r3, #1
 1988 0cd4 04E0     		b	.L245
 1989              	.L493:
 1990 0cd6 0123     		movs	r3, #1
 1991 0cd8 02E0     		b	.L245
 1992              	.L492:
 1993 0cda 0123     		movs	r3, #1
 1994 0cdc 00E0     		b	.L245
 1995              	.L491:
 1996 0cde 0123     		movs	r3, #1
 1997              	.L245:
 217:Drivers/STM32F4xx_HAL_Driver/Src/stm32f4xx_hal_dma_ex.c **** 
 1998              		.loc 1 217 0 discriminator 100
 1999 0ce0 644A     		ldr	r2, .L536+8
 2000 0ce2 9360     		str	r3, [r2, #8]
 2001 0ce4 A1E0     		b	.L243
 2002              	.L244:
 217:Drivers/STM32F4xx_HAL_Driver/Src/stm32f4xx_hal_dma_ex.c **** 
 2003              		.loc 1 217 0 discriminator 52
 2004 0ce6 654A     		ldr	r2, .L536+16
 2005 0ce8 9342     		cmp	r3, r2
 2006 0cea 4FD9     		bls	.L257
 217:Drivers/STM32F4xx_HAL_Driver/Src/stm32f4xx_hal_dma_ex.c **** 
 2007              		.loc 1 217 0 discriminator 102
 2008 0cec 483A     		subs	r2, r2, #72
 2009 0cee 9342     		cmp	r3, r2
ARM GAS  /tmp/ccYYUFl4.s 			page 47


 2010 0cf0 48D0     		beq	.L503
 217:Drivers/STM32F4xx_HAL_Driver/Src/stm32f4xx_hal_dma_ex.c **** 
 2011              		.loc 1 217 0 discriminator 104
 2012 0cf2 02F58062 		add	r2, r2, #1024
 2013 0cf6 9342     		cmp	r3, r2
 2014 0cf8 42D0     		beq	.L504
 217:Drivers/STM32F4xx_HAL_Driver/Src/stm32f4xx_hal_dma_ex.c **** 
 2015              		.loc 1 217 0 discriminator 106
 2016 0cfa A2F56872 		sub	r2, r2, #928
 2017 0cfe 9342     		cmp	r3, r2
 2018 0d00 3CD0     		beq	.L505
 217:Drivers/STM32F4xx_HAL_Driver/Src/stm32f4xx_hal_dma_ex.c **** 
 2019              		.loc 1 217 0 discriminator 108
 2020 0d02 02F58062 		add	r2, r2, #1024
 2021 0d06 9342     		cmp	r3, r2
 2022 0d08 36D0     		beq	.L506
 217:Drivers/STM32F4xx_HAL_Driver/Src/stm32f4xx_hal_dma_ex.c **** 
 2023              		.loc 1 217 0 discriminator 110
 2024 0d0a A2F58962 		sub	r2, r2, #1096
 2025 0d0e 9342     		cmp	r3, r2
 2026 0d10 30D0     		beq	.L507
 217:Drivers/STM32F4xx_HAL_Driver/Src/stm32f4xx_hal_dma_ex.c **** 
 2027              		.loc 1 217 0 discriminator 112
 2028 0d12 02F58062 		add	r2, r2, #1024
 2029 0d16 9342     		cmp	r3, r2
 2030 0d18 2AD0     		beq	.L508
 217:Drivers/STM32F4xx_HAL_Driver/Src/stm32f4xx_hal_dma_ex.c **** 
 2031              		.loc 1 217 0 discriminator 114
 2032 0d1a A2F56872 		sub	r2, r2, #928
 2033 0d1e 9342     		cmp	r3, r2
 2034 0d20 24D0     		beq	.L509
 217:Drivers/STM32F4xx_HAL_Driver/Src/stm32f4xx_hal_dma_ex.c **** 
 2035              		.loc 1 217 0 discriminator 116
 2036 0d22 02F58062 		add	r2, r2, #1024
 2037 0d26 9342     		cmp	r3, r2
 2038 0d28 1ED0     		beq	.L510
 217:Drivers/STM32F4xx_HAL_Driver/Src/stm32f4xx_hal_dma_ex.c **** 
 2039              		.loc 1 217 0 discriminator 118
 2040 0d2a A2F58962 		sub	r2, r2, #1096
 2041 0d2e 9342     		cmp	r3, r2
 2042 0d30 17D0     		beq	.L511
 217:Drivers/STM32F4xx_HAL_Driver/Src/stm32f4xx_hal_dma_ex.c **** 
 2043              		.loc 1 217 0 discriminator 120
 2044 0d32 02F58062 		add	r2, r2, #1024
 2045 0d36 9342     		cmp	r3, r2
 2046 0d38 10D0     		beq	.L512
 217:Drivers/STM32F4xx_HAL_Driver/Src/stm32f4xx_hal_dma_ex.c **** 
 2047              		.loc 1 217 0 discriminator 122
 2048 0d3a A2F56872 		sub	r2, r2, #928
 2049 0d3e 9342     		cmp	r3, r2
 2050 0d40 09D0     		beq	.L513
 217:Drivers/STM32F4xx_HAL_Driver/Src/stm32f4xx_hal_dma_ex.c **** 
 2051              		.loc 1 217 0 discriminator 124
 2052 0d42 02F58062 		add	r2, r2, #1024
 2053 0d46 9342     		cmp	r3, r2
 2054 0d48 02D1     		bne	.L514
 217:Drivers/STM32F4xx_HAL_Driver/Src/stm32f4xx_hal_dma_ex.c **** 
ARM GAS  /tmp/ccYYUFl4.s 			page 48


 2055              		.loc 1 217 0
 2056 0d4a 4FF48033 		mov	r3, #65536
 2057 0d4e 1AE0     		b	.L258
 2058              	.L514:
 2059 0d50 4FF48003 		mov	r3, #4194304
 2060 0d54 17E0     		b	.L258
 2061              	.L513:
 2062 0d56 4FF48033 		mov	r3, #65536
 2063 0d5a 14E0     		b	.L258
 2064              	.L512:
 2065 0d5c 4FF48033 		mov	r3, #65536
 2066 0d60 11E0     		b	.L258
 2067              	.L511:
 2068 0d62 4FF48033 		mov	r3, #65536
 2069 0d66 0EE0     		b	.L258
 2070              	.L510:
 2071 0d68 4023     		movs	r3, #64
 2072 0d6a 0CE0     		b	.L258
 2073              	.L509:
 2074 0d6c 4023     		movs	r3, #64
 2075 0d6e 0AE0     		b	.L258
 2076              	.L508:
 2077 0d70 4023     		movs	r3, #64
 2078 0d72 08E0     		b	.L258
 2079              	.L507:
 2080 0d74 4023     		movs	r3, #64
 2081 0d76 06E0     		b	.L258
 2082              	.L506:
 2083 0d78 0123     		movs	r3, #1
 2084 0d7a 04E0     		b	.L258
 2085              	.L505:
 2086 0d7c 0123     		movs	r3, #1
 2087 0d7e 02E0     		b	.L258
 2088              	.L504:
 2089 0d80 0123     		movs	r3, #1
 2090 0d82 00E0     		b	.L258
 2091              	.L503:
 2092 0d84 0123     		movs	r3, #1
 2093              	.L258:
 217:Drivers/STM32F4xx_HAL_Driver/Src/stm32f4xx_hal_dma_ex.c **** 
 2094              		.loc 1 217 0 discriminator 151
 2095 0d86 394A     		ldr	r2, .L536
 2096 0d88 D360     		str	r3, [r2, #12]
 2097 0d8a 4EE0     		b	.L243
 2098              	.L257:
 217:Drivers/STM32F4xx_HAL_Driver/Src/stm32f4xx_hal_dma_ex.c **** 
 2099              		.loc 1 217 0 discriminator 103
 2100 0d8c 3C4A     		ldr	r2, .L536+20
 2101 0d8e 9342     		cmp	r3, r2
 2102 0d90 48D0     		beq	.L515
 217:Drivers/STM32F4xx_HAL_Driver/Src/stm32f4xx_hal_dma_ex.c **** 
 2103              		.loc 1 217 0 discriminator 153
 2104 0d92 02F58062 		add	r2, r2, #1024
 2105 0d96 9342     		cmp	r3, r2
 2106 0d98 42D0     		beq	.L516
 217:Drivers/STM32F4xx_HAL_Driver/Src/stm32f4xx_hal_dma_ex.c **** 
 2107              		.loc 1 217 0 discriminator 155
ARM GAS  /tmp/ccYYUFl4.s 			page 49


 2108 0d9a A2F56872 		sub	r2, r2, #928
 2109 0d9e 9342     		cmp	r3, r2
 2110 0da0 3CD0     		beq	.L517
 217:Drivers/STM32F4xx_HAL_Driver/Src/stm32f4xx_hal_dma_ex.c **** 
 2111              		.loc 1 217 0 discriminator 157
 2112 0da2 02F58062 		add	r2, r2, #1024
 2113 0da6 9342     		cmp	r3, r2
 2114 0da8 36D0     		beq	.L518
 217:Drivers/STM32F4xx_HAL_Driver/Src/stm32f4xx_hal_dma_ex.c **** 
 2115              		.loc 1 217 0 discriminator 159
 2116 0daa A2F58962 		sub	r2, r2, #1096
 2117 0dae 9342     		cmp	r3, r2
 2118 0db0 30D0     		beq	.L519
 217:Drivers/STM32F4xx_HAL_Driver/Src/stm32f4xx_hal_dma_ex.c **** 
 2119              		.loc 1 217 0 discriminator 161
 2120 0db2 02F58062 		add	r2, r2, #1024
 2121 0db6 9342     		cmp	r3, r2
 2122 0db8 2AD0     		beq	.L520
 217:Drivers/STM32F4xx_HAL_Driver/Src/stm32f4xx_hal_dma_ex.c **** 
 2123              		.loc 1 217 0 discriminator 163
 2124 0dba A2F56872 		sub	r2, r2, #928
 2125 0dbe 9342     		cmp	r3, r2
 2126 0dc0 24D0     		beq	.L521
 217:Drivers/STM32F4xx_HAL_Driver/Src/stm32f4xx_hal_dma_ex.c **** 
 2127              		.loc 1 217 0 discriminator 165
 2128 0dc2 02F58062 		add	r2, r2, #1024
 2129 0dc6 9342     		cmp	r3, r2
 2130 0dc8 1ED0     		beq	.L522
 217:Drivers/STM32F4xx_HAL_Driver/Src/stm32f4xx_hal_dma_ex.c **** 
 2131              		.loc 1 217 0 discriminator 167
 2132 0dca A2F58962 		sub	r2, r2, #1096
 2133 0dce 9342     		cmp	r3, r2
 2134 0dd0 17D0     		beq	.L523
 217:Drivers/STM32F4xx_HAL_Driver/Src/stm32f4xx_hal_dma_ex.c **** 
 2135              		.loc 1 217 0 discriminator 169
 2136 0dd2 02F58062 		add	r2, r2, #1024
 2137 0dd6 9342     		cmp	r3, r2
 2138 0dd8 10D0     		beq	.L524
 217:Drivers/STM32F4xx_HAL_Driver/Src/stm32f4xx_hal_dma_ex.c **** 
 2139              		.loc 1 217 0 discriminator 171
 2140 0dda A2F56872 		sub	r2, r2, #928
 2141 0dde 9342     		cmp	r3, r2
 2142 0de0 09D0     		beq	.L525
 217:Drivers/STM32F4xx_HAL_Driver/Src/stm32f4xx_hal_dma_ex.c **** 
 2143              		.loc 1 217 0 discriminator 173
 2144 0de2 02F58062 		add	r2, r2, #1024
 2145 0de6 9342     		cmp	r3, r2
 2146 0de8 02D1     		bne	.L526
 217:Drivers/STM32F4xx_HAL_Driver/Src/stm32f4xx_hal_dma_ex.c **** 
 2147              		.loc 1 217 0
 2148 0dea 4FF48033 		mov	r3, #65536
 2149 0dee 1AE0     		b	.L271
 2150              	.L526:
 2151 0df0 4FF48003 		mov	r3, #4194304
 2152 0df4 17E0     		b	.L271
 2153              	.L525:
 2154 0df6 4FF48033 		mov	r3, #65536
ARM GAS  /tmp/ccYYUFl4.s 			page 50


 2155 0dfa 14E0     		b	.L271
 2156              	.L524:
 2157 0dfc 4FF48033 		mov	r3, #65536
 2158 0e00 11E0     		b	.L271
 2159              	.L523:
 2160 0e02 4FF48033 		mov	r3, #65536
 2161 0e06 0EE0     		b	.L271
 2162              	.L522:
 2163 0e08 4023     		movs	r3, #64
 2164 0e0a 0CE0     		b	.L271
 2165              	.L521:
 2166 0e0c 4023     		movs	r3, #64
 2167 0e0e 0AE0     		b	.L271
 2168              	.L520:
 2169 0e10 4023     		movs	r3, #64
 2170 0e12 08E0     		b	.L271
 2171              	.L519:
 2172 0e14 4023     		movs	r3, #64
 2173 0e16 06E0     		b	.L271
 2174              	.L518:
 2175 0e18 0123     		movs	r3, #1
 2176 0e1a 04E0     		b	.L271
 2177              	.L517:
 2178 0e1c 0123     		movs	r3, #1
 2179 0e1e 02E0     		b	.L271
 2180              	.L516:
 2181 0e20 0123     		movs	r3, #1
 2182 0e22 00E0     		b	.L271
 2183              	.L515:
 2184 0e24 0123     		movs	r3, #1
 2185              	.L271:
 217:Drivers/STM32F4xx_HAL_Driver/Src/stm32f4xx_hal_dma_ex.c **** 
 2186              		.loc 1 217 0 discriminator 200
 2187 0e26 114A     		ldr	r2, .L536
 2188 0e28 9360     		str	r3, [r2, #8]
 2189              	.L243:
 220:Drivers/STM32F4xx_HAL_Driver/Src/stm32f4xx_hal_dma_ex.c ****     hdma->Instance->FCR |= DMA_IT_FE;
 2190              		.loc 1 220 0 is_stmt 1
 2191 0e2a 2268     		ldr	r2, [r4]
 2192 0e2c 1368     		ldr	r3, [r2]
 2193 0e2e 43F01603 		orr	r3, r3, #22
 2194 0e32 1360     		str	r3, [r2]
 221:Drivers/STM32F4xx_HAL_Driver/Src/stm32f4xx_hal_dma_ex.c ****     
 2195              		.loc 1 221 0
 2196 0e34 2268     		ldr	r2, [r4]
 2197 0e36 5369     		ldr	r3, [r2, #20]
 2198 0e38 43F08003 		orr	r3, r3, #128
 2199 0e3c 5361     		str	r3, [r2, #20]
 223:Drivers/STM32F4xx_HAL_Driver/Src/stm32f4xx_hal_dma_ex.c ****     {
 2200              		.loc 1 223 0
 2201 0e3e 236C     		ldr	r3, [r4, #64]
 2202 0e40 0BB9     		cbnz	r3, .L283
 223:Drivers/STM32F4xx_HAL_Driver/Src/stm32f4xx_hal_dma_ex.c ****     {
 2203              		.loc 1 223 0 is_stmt 0 discriminator 1
 2204 0e42 A36C     		ldr	r3, [r4, #72]
 2205 0e44 23B1     		cbz	r3, .L284
 2206              	.L283:
ARM GAS  /tmp/ccYYUFl4.s 			page 51


 225:Drivers/STM32F4xx_HAL_Driver/Src/stm32f4xx_hal_dma_ex.c ****     }
 2207              		.loc 1 225 0 is_stmt 1
 2208 0e46 2268     		ldr	r2, [r4]
 2209 0e48 1368     		ldr	r3, [r2]
 2210 0e4a 43F00803 		orr	r3, r3, #8
 2211 0e4e 1360     		str	r3, [r2]
 2212              	.L284:
 229:Drivers/STM32F4xx_HAL_Driver/Src/stm32f4xx_hal_dma_ex.c ****   }
 2213              		.loc 1 229 0
 2214 0e50 2268     		ldr	r2, [r4]
 2215 0e52 1368     		ldr	r3, [r2]
 2216 0e54 43F00103 		orr	r3, r3, #1
 2217 0e58 1360     		str	r3, [r2]
 173:Drivers/STM32F4xx_HAL_Driver/Src/stm32f4xx_hal_dma_ex.c ****   
 2218              		.loc 1 173 0
 2219 0e5a 0020     		movs	r0, #0
 2220 0e5c 38BD     		pop	{r3, r4, r5, pc}
 2221              	.LVL29:
 2222              	.L17:
 234:Drivers/STM32F4xx_HAL_Driver/Src/stm32f4xx_hal_dma_ex.c ****     
 2223              		.loc 1 234 0
 2224 0e5e 0023     		movs	r3, #0
 2225              	.LVL30:
 2226 0e60 80F83430 		strb	r3, [r0, #52]
 2227              	.LVL31:
 237:Drivers/STM32F4xx_HAL_Driver/Src/stm32f4xx_hal_dma_ex.c ****   }  
 2228              		.loc 1 237 0
 2229 0e64 0220     		movs	r0, #2
 2230              	.LVL32:
 239:Drivers/STM32F4xx_HAL_Driver/Src/stm32f4xx_hal_dma_ex.c **** }
 2231              		.loc 1 239 0
 2232 0e66 38BD     		pop	{r3, r4, r5, pc}
 2233              	.LVL33:
 2234              	.L286:
 193:Drivers/STM32F4xx_HAL_Driver/Src/stm32f4xx_hal_dma_ex.c ****   
 2235              		.loc 1 193 0
 2236 0e68 0220     		movs	r0, #2
 2237              	.LVL34:
 240:Drivers/STM32F4xx_HAL_Driver/Src/stm32f4xx_hal_dma_ex.c **** 
 2238              		.loc 1 240 0
 2239 0e6a 38BD     		pop	{r3, r4, r5, pc}
 2240              	.LVL35:
 2241              	.L537:
 2242              		.align	2
 2243              	.L536:
 2244 0e6c 00600240 		.word	1073897472
 2245 0e70 58640240 		.word	1073898584
 2246 0e74 00640240 		.word	1073898496
 2247 0e78 B8600240 		.word	1073897656
 2248 0e7c 58600240 		.word	1073897560
 2249 0e80 10600240 		.word	1073897488
 2250              		.cfi_endproc
 2251              	.LFE124:
 2253              		.section	.text.HAL_DMAEx_ChangeMemory,"ax",%progbits
 2254              		.align	2
 2255              		.global	HAL_DMAEx_ChangeMemory
 2256              		.thumb
ARM GAS  /tmp/ccYYUFl4.s 			page 52


 2257              		.thumb_func
 2259              	HAL_DMAEx_ChangeMemory:
 2260              	.LFB125:
 257:Drivers/STM32F4xx_HAL_Driver/Src/stm32f4xx_hal_dma_ex.c ****   if(memory == MEMORY0)
 2261              		.loc 1 257 0
 2262              		.cfi_startproc
 2263              		@ args = 0, pretend = 0, frame = 0
 2264              		@ frame_needed = 0, uses_anonymous_args = 0
 2265              		@ link register save eliminated.
 2266              	.LVL36:
 258:Drivers/STM32F4xx_HAL_Driver/Src/stm32f4xx_hal_dma_ex.c ****   {
 2267              		.loc 1 258 0
 2268 0000 12B9     		cbnz	r2, .L539
 261:Drivers/STM32F4xx_HAL_Driver/Src/stm32f4xx_hal_dma_ex.c ****   }
 2269              		.loc 1 261 0
 2270 0002 0368     		ldr	r3, [r0]
 2271 0004 D960     		str	r1, [r3, #12]
 2272 0006 01E0     		b	.L540
 2273              	.L539:
 266:Drivers/STM32F4xx_HAL_Driver/Src/stm32f4xx_hal_dma_ex.c ****   }
 2274              		.loc 1 266 0
 2275 0008 0368     		ldr	r3, [r0]
 2276 000a 1961     		str	r1, [r3, #16]
 2277              	.L540:
 270:Drivers/STM32F4xx_HAL_Driver/Src/stm32f4xx_hal_dma_ex.c **** 
 2278              		.loc 1 270 0
 2279 000c 0020     		movs	r0, #0
 2280              	.LVL37:
 2281 000e 7047     		bx	lr
 2282              		.cfi_endproc
 2283              	.LFE125:
 2285              		.text
 2286              	.Letext0:
 2287              		.file 2 "/usr/include/newlib/machine/_default_types.h"
 2288              		.file 3 "/usr/include/newlib/sys/_stdint.h"
 2289              		.file 4 "Drivers/CMSIS/Device/ST/STM32F4xx/Include/stm32f407xx.h"
 2290              		.file 5 "Drivers/STM32F4xx_HAL_Driver/Inc/stm32f4xx_hal_def.h"
 2291              		.file 6 "Drivers/STM32F4xx_HAL_Driver/Inc/stm32f4xx_hal_dma.h"
 2292              		.file 7 "Drivers/STM32F4xx_HAL_Driver/Inc/stm32f4xx_hal_dma_ex.h"
 2293              		.file 8 "Drivers/CMSIS/Include/core_cm4.h"
ARM GAS  /tmp/ccYYUFl4.s 			page 53

